

Microchip Technology PIC LITE Macro Assembler V1.33 build 59893 
                                                                                               Mon Apr 13 17:42:54 2015

Microchip Technology Omniscient Code Generator (Lite mode) build 59893
     1                           	processor	16F628A
     2                           	opt	pw 120
     3                           	opt	lm
     4                           	psect	strings,global,class=STRING,delta=2
     5                           	psect	nvBANK0,global,class=BANK0,space=1,delta=1
     6                           	psect	cinit,global,class=CODE,merge=1,delta=2
     7                           	psect	bssCOMMON,global,class=COMMON,space=1,delta=1
     8                           	psect	bssBANK0,global,class=BANK0,space=1,delta=1
     9                           	psect	clrtext,global,class=CODE,delta=2
    10                           	psect	cstackCOMMON,global,class=COMMON,space=1,delta=1
    11                           	psect	cstackBANK0,global,class=BANK0,space=1,delta=1
    12                           	psect	maintext,global,class=CODE,split=1,delta=2
    13                           	psect	text1,local,class=CODE,merge=1,delta=2
    14                           	psect	text2,local,class=CODE,merge=1,delta=2
    15                           	psect	text3,local,class=CODE,merge=1,delta=2
    16                           	psect	text4,local,class=CODE,merge=1,delta=2
    17                           	psect	text5,local,class=CODE,merge=1,delta=2
    18                           	psect	text6,local,class=CODE,merge=1,delta=2
    19                           	psect	text7,local,class=CODE,merge=1,delta=2
    20                           	psect	text8,local,class=CODE,merge=1,delta=2
    21                           	psect	text9,local,class=CODE,merge=1,delta=2
    22                           	psect	text10,local,class=CODE,merge=1,inline,delta=2
    23                           	psect	text11,local,class=CODE,merge=1,delta=2
    24                           	psect	text12,local,class=CODE,merge=1,delta=2
    25                           	psect	text13,local,class=CODE,merge=1,delta=2
    26                           	psect	text14,local,class=CODE,merge=1,delta=2
    27                           	psect	text15,local,class=CODE,merge=1,delta=2
    28                           	psect	text16,local,class=CODE,merge=1,delta=2
    29                           	psect	text17,local,class=CODE,merge=1,delta=2
    30                           	psect	text18,local,class=CODE,merge=1,delta=2
    31                           	psect	text19,local,class=CODE,merge=1,delta=2
    32                           	psect	text20,local,class=CODE,merge=1,delta=2
    33                           	psect	text21,local,class=CODE,merge=1,delta=2
    34                           	psect	text22,local,class=CODE,merge=1,delta=2
    35                           	psect	text23,local,class=CODE,merge=1,delta=2
    36                           	psect	text24,local,class=CODE,merge=1,delta=2
    37                           	psect	text25,local,class=CODE,merge=1,delta=2
    38                           	psect	text26,local,class=CODE,merge=1,delta=2
    39                           	psect	intentry,global,class=CODE,delta=2
    40                           	psect	text27,local,class=CODE,merge=1,inline,delta=2
    41                           	dabs	1,0x7E,2
    42  0000                     	;# 
    43  0001                     	;# 
    44  0002                     	;# 
    45  0003                     	;# 
    46  0004                     	;# 
    47  0005                     	;# 
    48  0006                     	;# 
    49  000A                     	;# 
    50  000B                     	;# 
    51  000C                     	;# 
    52  000E                     	;# 
    53  000E                     	;# 
    54  000F                     	;# 
    55  0010                     	;# 
    56  0011                     	;# 
    57  0012                     	;# 
    58  0015                     	;# 
    59  0015                     	;# 
    60  0016                     	;# 
    61  0017                     	;# 
    62  0018                     	;# 
    63  0019                     	;# 
    64  001A                     	;# 
    65  001F                     	;# 
    66  0081                     	;# 
    67  0085                     	;# 
    68  0086                     	;# 
    69  008C                     	;# 
    70  008E                     	;# 
    71  0092                     	;# 
    72  0098                     	;# 
    73  0099                     	;# 
    74  009A                     	;# 
    75  009B                     	;# 
    76  009C                     	;# 
    77  009D                     	;# 
    78  009F                     	;# 
    79                           
    80                           	psect	strings
    81  0400                     __pstrings:	
    82  0400                     stringtab:	
    83  0400                     __stringtab:	
    84  0400                     stringcode:	
    85                           ;	String table - string pointers are 1 byte each
    86                           
    87  0400                     stringdir:	
    88  0400  3004               	movlw	high stringdir
    89  0401  008A               	movwf	10
    90  0402  0804               	movf	4,w
    91  0403  0A84               	incf	4,f
    92  0404  0782               	addwf	2,f
    93  0405                     __stringbase:	
    94  0405  3400               	retlw	0
    95  0406                     __end_of__stringtab:	
    96  0406                     _dpowers:	
    97  0406  3401               	retlw	1
    98  0407  3400               	retlw	0
    99  0408  340A               	retlw	10
   100  0409  3400               	retlw	0
   101  040A  3464               	retlw	100
   102  040B  3400               	retlw	0
   103  040C  34E8               	retlw	232
   104  040D  3403               	retlw	3
   105  040E  3410               	retlw	16
   106  040F  3427               	retlw	39
   107  0410                     __end_of_dpowers:	
   108  0410                     _hexpowers:	
   109  0410  3401               	retlw	1
   110  0411  3400               	retlw	0
   111  0412  3410               	retlw	16
   112  0413  3400               	retlw	0
   113  0414  3400               	retlw	0
   114  0415  3401               	retlw	1
   115  0416  3400               	retlw	0
   116  0417  3410               	retlw	16
   117  0418                     __end_of_hexpowers:	
   118  0418                     __stringdata:	
   119  0418                     STR_6:	
   120  0418  3443               	retlw	67	;'C'
   121  0419  3461               	retlw	97	;'a'
   122  041A  3472               	retlw	114	;'r'
   123  041B  3474               	retlw	116	;'t'
   124  041C  34E3               	retlw	-29
   125  041D  346F               	retlw	111	;'o'
   126  041E  3420               	retlw	32	;' '
   127  041F  3472               	retlw	114	;'r'
   128  0420  3465               	retlw	101	;'e'
   129  0421  3463               	retlw	99	;'c'
   130  0422  346F               	retlw	111	;'o'
   131  0423  346E               	retlw	110	;'n'
   132  0424  3468               	retlw	104	;'h'
   133  0425  3465               	retlw	101	;'e'
   134  0426  3463               	retlw	99	;'c'
   135  0427  3469               	retlw	105	;'i'
   136  0428  3464               	retlw	100	;'d'
   137  0429  346F               	retlw	111	;'o'
   138  042A  3421               	retlw	33	;'!'
   139  042B  340A               	retlw	10
   140  042C  340D               	retlw	13
   141  042D  3400               	retlw	0
   142  042E                     STR_7:	
   143  042E  3443               	retlw	67	;'C'
   144  042F  3461               	retlw	97	;'a'
   145  0430  3464               	retlw	100	;'d'
   146  0431  3461               	retlw	97	;'a'
   147  0432  3473               	retlw	115	;'s'
   148  0433  3474               	retlw	116	;'t'
   149  0434  3472               	retlw	114	;'r'
   150  0435  3465               	retlw	101	;'e'
   151  0436  3420               	retlw	32	;' '
   152  0437  346F               	retlw	111	;'o'
   153  0438  3420               	retlw	32	;' '
   154  0439  3463               	retlw	99	;'c'
   155  043A  3461               	retlw	97	;'a'
   156  043B  3472               	retlw	114	;'r'
   157  043C  3474               	retlw	116	;'t'
   158  043D  34E3               	retlw	-29
   159  043E  346F               	retlw	111	;'o'
   160  043F  340A               	retlw	10
   161  0440  340D               	retlw	13
   162  0441  3400               	retlw	0
   163  0442                     STR_2:	
   164  0442  3454               	retlw	84	;'T'
   165  0443  3469               	retlw	105	;'i'
   166  0444  3470               	retlw	112	;'p'
   167  0445  346F               	retlw	111	;'o'
   168  0446  3420               	retlw	32	;' '
   169  0447  3464               	retlw	100	;'d'
   170  0448  3465               	retlw	101	;'e'
   171  0449  3420               	retlw	32	;' '
   172  044A  3454               	retlw	84	;'T'
   173  044B  3461               	retlw	97	;'a'
   174  044C  3467               	retlw	103	;'g'
   175  044D  343A               	retlw	58	;':'
   176  044E  3420               	retlw	32	;' '
   177  044F  3425               	retlw	37	;'%'
   178  0450  3475               	retlw	117	;'u'
   179  0451  340A               	retlw	10
   180  0452  340D               	retlw	13
   181  0453  3400               	retlw	0
   182  0454                     STR_8:	
   183  0454  3430               	retlw	48	;'0'
   184  0455  3431               	retlw	49	;'1'
   185  0456  3432               	retlw	50	;'2'
   186  0457  3433               	retlw	51	;'3'
   187  0458  3434               	retlw	52	;'4'
   188  0459  3435               	retlw	53	;'5'
   189  045A  3436               	retlw	54	;'6'
   190  045B  3437               	retlw	55	;'7'
   191  045C  3438               	retlw	56	;'8'
   192  045D  3439               	retlw	57	;'9'
   193  045E  3441               	retlw	65	;'A'
   194  045F  3442               	retlw	66	;'B'
   195  0460  3443               	retlw	67	;'C'
   196  0461  3444               	retlw	68	;'D'
   197  0462  3445               	retlw	69	;'E'
   198  0463  3446               	retlw	70	;'F'
   199  0464  3400               	retlw	0
   200  0465                     STR_1:	
   201  0465  3443               	retlw	67	;'C'
   202  0466  3461               	retlw	97	;'a'
   203  0467  3464               	retlw	100	;'d'
   204  0468  3461               	retlw	97	;'a'
   205  0469  3473               	retlw	115	;'s'
   206  046A  3474               	retlw	116	;'t'
   207  046B  3472               	retlw	114	;'r'
   208  046C  346F               	retlw	111	;'o'
   209  046D  3420               	retlw	32	;' '
   210  046E  3466               	retlw	102	;'f'
   211  046F  3465               	retlw	101	;'e'
   212  0470  3469               	retlw	105	;'i'
   213  0471  3474               	retlw	116	;'t'
   214  0472  346F               	retlw	111	;'o'
   215  0473  340D               	retlw	13
   216  0474  340A               	retlw	10
   217  0475  3400               	retlw	0
   218  0476                     STR_3:	
   219  0476  3443               	retlw	67	;'C'
   220  0477  346F               	retlw	111	;'o'
   221  0478  3464               	retlw	100	;'d'
   222  0479  3469               	retlw	105	;'i'
   223  047A  3467               	retlw	103	;'g'
   224  047B  346F               	retlw	111	;'o'
   225  047C  343A               	retlw	58	;':'
   226  047D  3420               	retlw	32	;' '
   227  047E  3400               	retlw	0
   228  047F                     STR_4:	
   229  047F  3425               	retlw	37	;'%'
   230  0480  3458               	retlw	88	;'X'
   231  0481  3420               	retlw	32	;' '
   232  0482  3400               	retlw	0
   233  0483                     __end_of__stringdata:	
   234                           
   235                           ; #config settings
   236  0000                     
   237                           	psect	nvBANK0
   238  006E                     __pnvBANK0:	
   239  006E                     __mode:	
   240  006E                     	ds	1
   241  0005                     _PORTAbits	set	5
   242  0006                     _PORTB	set	6
   243  0006                     _PORTBbits	set	6
   244  001A                     _RCREG	set	26
   245  0018                     _RCSTAbits	set	24
   246  0019                     _TXREG	set	25
   247  0018                     _CARRY	set	24
   248  005F                     _GIE	set	95
   249  0065                     _RCIF	set	101
   250  0064                     _TXIF	set	100
   251  009B                     _EEADR	set	155
   252  009C                     _EECON1	set	156
   253  009D                     _EECON2	set	157
   254  009A                     _EEDATA	set	154
   255  0099                     _SPBRG	set	153
   256  0085                     _TRISAbits	set	133
   257  0086                     _TRISB	set	134
   258  0086                     _TRISBbits	set	134
   259  0098                     _TXSTAbits	set	152
   260  04E0                     _RD	set	1248
   261  04E1                     _WR	set	1249
   262  04E2                     _WREN	set	1250
   263                           
   264                           	psect	cinit
   265  0011                     start_initialization:	
   266  0011                     __initialization:	
   267                           
   268                           ; Clear objects allocated to COMMON
   269  0011  01F7               	clrf	__pbssCOMMON& (0+127)
   270  0012  01F8               	clrf	(__pbssCOMMON+1)& (0+127)
   271                           
   272                           ; Clear objects allocated to BANK0
   273  0013  1383               	bcf	3,7	;select IRP bank0
   274  0014  305E               	movlw	low __pbssBANK0
   275  0015  0084               	movwf	4
   276  0016  306E               	movlw	low (__pbssBANK0+16)
   277  0017  279F               	fcall	clear_ram0
   278  0018                     end_of_initialization:	
   279                           ;End of C runtime variable initialization code
   280                           
   281  0018                     __end_of__initialization:	
   282  0018  0183               	clrf	3
   283  0019  2A36               	ljmp	_main	;jump to C main() function
   284                           
   285                           	psect	bssCOMMON
   286  0077                     __pbssCOMMON:	
   287  0077                     _count:	
   288  0077                     	ds	2
   289                           
   290                           	psect	bssBANK0
   291  005E                     __pbssBANK0:	
   292  005E                     _buffer:	
   293  005E                     	ds	16
   294                           
   295                           	psect	clrtext
   296  079F                     clear_ram0:	
   297                           ;	Called with FSR containing the base address, and
   298                           ;	W with the last address+1
   299                           
   300  079F  0064               	clrwdt	;clear the watchdog before getting into this loop
   301  07A0                     clrloop0:	
   302  07A0  0180               	clrf	0	;clear RAM location pointed to by FSR
   303  07A1  0A84               	incf	4,f	;increment pointer
   304  07A2  0604               	xorwf	4,w	;XOR with final address
   305  07A3  1903               	btfsc	3,2	;have we reached the end yet?
   306  07A4  3400               	retlw	0	;all done for this memory range, return
   307  07A5  0604               	xorwf	4,w	;XOR again to restore value
   308  07A6  2FA0               	goto	clrloop0	;do the next byte
   309                           
   310                           	psect	cstackCOMMON
   311  0070                     __pcstackCOMMON:	
   312  0070                     ?_putch:	
   313  0070                     ?_UART_init:	
   314                           ; 0 bytes @ 0x0
   315                           
   316  0070                     ?__ISR_UART:	
   317                           ; 0 bytes @ 0x0
   318                           
   319  0070                     ??__ISR_UART:	
   320                           ; 0 bytes @ 0x0
   321                           
   322  0070                     ?_SPI_init:	
   323                           ; 0 bytes @ 0x0
   324                           
   325  0070                     ?_MFRC522_Reset:	
   326                           ; 0 bytes @ 0x0
   327                           
   328  0070                     ?_MFRC522_AntennaOn:	
   329                           ; 0 bytes @ 0x0
   330                           
   331  0070                     ?_MFRC522_Init:	
   332                           ; 0 bytes @ 0x0
   333                           
   334  0070                     ?_record_card:	
   335                           ; 0 bytes @ 0x0
   336                           
   337  0070                     ?__ISR:	
   338                           ; 0 bytes @ 0x0
   339                           
   340  0070                     ?_main:	
   341                           ; 0 bytes @ 0x0
   342                           
   343  0070                     ?_eeprom_read:	
   344                           ; 0 bytes @ 0x0
   345                           
   346  0070                     ?_UART_read_byte:	
   347                           ; 1 bytes @ 0x0
   348                           
   349  0070                     ?_SPI_transfer:	
   350                           ; 1 bytes @ 0x0
   351                           
   352  0070                     ?_MFRC522_Rd:	
   353                           ; 1 bytes @ 0x0
   354                           
   355  0070                     ?_MFRC522_AntiColl:	
   356                           ; 1 bytes @ 0x0
   357                           
   358  0070                     ?_MFRC522_isCard:	
   359                           ; 1 bytes @ 0x0
   360                           
   361  0070                     ?_MFRC522_ReadCardSerial:	
   362                           ; 1 bytes @ 0x0
   363                           
   364  0070                     ?_compare_card:	
   365                           ; 1 bytes @ 0x0
   366                           
   367                           
   368                           ; 1 bytes @ 0x0
   369  0070                     	ds	1
   370  0071                     ??__ISR:	
   371                           
   372                           ; 0 bytes @ 0x1
   373  0071                     	ds	4
   374  0075                     ??_eeprom_read:	
   375  0075                     ?_eeprom_write:	
   376                           ; 0 bytes @ 0x5
   377                           
   378  0075                     ??_putch:	
   379                           ; 0 bytes @ 0x5
   380                           
   381  0075                     ??_UART_init:	
   382                           ; 0 bytes @ 0x5
   383                           
   384  0075                     ??_UART_read_byte:	
   385                           ; 0 bytes @ 0x5
   386                           
   387  0075                     ??_SPI_init:	
   388                           ; 0 bytes @ 0x5
   389                           
   390  0075                     ??_SPI_transfer:	
   391                           ; 0 bytes @ 0x5
   392                           
   393  0075                     ??___lwdiv:	
   394                           ; 0 bytes @ 0x5
   395                           
   396  0075                     ?_UART_available:	
   397                           ; 0 bytes @ 0x5
   398                           
   399  0075                     putch@data:	
   400                           ; 2 bytes @ 0x5
   401                           
   402  0075                     eeprom_write@value:	
   403                           ; 1 bytes @ 0x5
   404                           
   405                           
   406                           ; 1 bytes @ 0x5
   407  0075                     	ds	1
   408  0076                     ??_eeprom_write:	
   409  0076                     ??_MFRC522_Rd:	
   410                           ; 0 bytes @ 0x6
   411                           
   412  0076                     ??___lwmod:	
   413                           ; 0 bytes @ 0x6
   414                           
   415  0076                     SPI_init@mode:	
   416                           ; 0 bytes @ 0x6
   417                           
   418  0076                     eeprom_read@addr:	
   419                           ; 1 bytes @ 0x6
   420                           
   421                           
   422                           ; 1 bytes @ 0x6
   423  0076                     	ds	1
   424  0077                     ??_UART_available:	
   425                           
   426                           	psect	cstackBANK0
   427  0020                     __pcstackBANK0:	
   428                           ; 0 bytes @ 0x7
   429                           
   430  0020                     ??_compare_card:	
   431  0020                     ?___lwdiv:	
   432                           ; 0 bytes @ 0x0
   433                           
   434  0020                     UART_read_byte@data:	
   435                           ; 2 bytes @ 0x0
   436                           
   437  0020                     SPI_transfer@data:	
   438                           ; 1 bytes @ 0x0
   439                           
   440  0020                     eeprom_write@addr:	
   441                           ; 1 bytes @ 0x0
   442                           
   443  0020                     ___lwdiv@divisor:	
   444                           ; 1 bytes @ 0x0
   445                           
   446                           
   447                           ; 2 bytes @ 0x0
   448  0020                     	ds	1
   449  0021                     ??_record_card:	
   450  0021                     compare_card@index:	
   451                           ; 0 bytes @ 0x1
   452                           
   453  0021                     UART_read_byte@i:	
   454                           ; 1 bytes @ 0x1
   455                           
   456  0021                     SPI_transfer@i:	
   457                           ; 2 bytes @ 0x1
   458                           
   459                           
   460                           ; 2 bytes @ 0x1
   461  0021                     	ds	1
   462  0022                     compare_card@card:	
   463  0022                     record_card@card:	
   464                           ; 1 bytes @ 0x2
   465                           
   466  0022                     ___lwdiv@dividend:	
   467                           ; 1 bytes @ 0x2
   468                           
   469                           
   470                           ; 2 bytes @ 0x2
   471  0022                     	ds	1
   472  0023                     compare_card@i:	
   473  0023                     record_card@index:	
   474                           ; 1 bytes @ 0x3
   475                           
   476  0023                     SPI_transfer@i_224:	
   477                           ; 1 bytes @ 0x3
   478                           
   479                           
   480                           ; 2 bytes @ 0x3
   481  0023                     	ds	1
   482  0024                     ___lwdiv@counter:	
   483                           
   484                           ; 1 bytes @ 0x4
   485  0024                     	ds	1
   486  0025                     SPI_transfer@byte:	
   487  0025                     ___lwdiv@quotient:	
   488                           ; 1 bytes @ 0x5
   489                           
   490                           
   491                           ; 2 bytes @ 0x5
   492  0025                     	ds	1
   493  0026                     MFRC522_Rd@addr:	
   494                           
   495                           ; 1 bytes @ 0x6
   496  0026                     	ds	1
   497  0027                     ?___lwmod:	
   498  0027                     MFRC522_Rd@value:	
   499                           ; 2 bytes @ 0x7
   500                           
   501  0027                     ___lwmod@divisor:	
   502                           ; 1 bytes @ 0x7
   503                           
   504                           
   505                           ; 2 bytes @ 0x7
   506  0027                     	ds	1
   507  0028                     ?_MFRC522_Wr:	
   508  0028                     MFRC522_Wr@value:	
   509                           ; 0 bytes @ 0x8
   510                           
   511                           
   512                           ; 1 bytes @ 0x8
   513  0028                     	ds	1
   514  0029                     ??_MFRC522_Wr:	
   515  0029                     ___lwmod@dividend:	
   516                           ; 0 bytes @ 0x9
   517                           
   518                           
   519                           ; 2 bytes @ 0x9
   520  0029                     	ds	1
   521  002A                     MFRC522_Wr@addr:	
   522                           
   523                           ; 1 bytes @ 0xA
   524  002A                     	ds	1
   525  002B                     ?_MFRC522_Clear_Bit:	
   526  002B                     ?_MFRC522_Set_Bit:	
   527                           ; 0 bytes @ 0xB
   528                           
   529  002B                     ??_MFRC522_Reset:	
   530                           ; 0 bytes @ 0xB
   531                           
   532  002B                     MFRC522_Clear_Bit@mask:	
   533                           ; 0 bytes @ 0xB
   534                           
   535  002B                     MFRC522_Set_Bit@mask:	
   536                           ; 1 bytes @ 0xB
   537                           
   538  002B                     ___lwmod@counter:	
   539                           ; 1 bytes @ 0xB
   540                           
   541                           
   542                           ; 1 bytes @ 0xB
   543  002B                     	ds	1
   544  002C                     ??_MFRC522_Clear_Bit:	
   545  002C                     ??_MFRC522_Set_Bit:	
   546                           ; 0 bytes @ 0xC
   547                           
   548  002C                     ?_printf:	
   549                           ; 0 bytes @ 0xC
   550                           
   551                           
   552                           ; 2 bytes @ 0xC
   553  002C                     	ds	1
   554  002D                     MFRC522_Set_Bit@addr:	
   555                           
   556                           ; 1 bytes @ 0xD
   557  002D                     	ds	1
   558  002E                     ??_printf:	
   559  002E                     ??_MFRC522_AntennaOn:	
   560                           ; 0 bytes @ 0xE
   561                           
   562  002E                     MFRC522_Clear_Bit@addr:	
   563                           ; 0 bytes @ 0xE
   564                           
   565                           
   566                           ; 1 bytes @ 0xE
   567  002E                     	ds	1
   568  002F                     ??_MFRC522_Init:	
   569  002F                     ?_MFRC522_ToCard:	
   570                           ; 0 bytes @ 0xF
   571                           
   572  002F                     MFRC522_ToCard@sendData:	
   573                           ; 1 bytes @ 0xF
   574                           
   575                           
   576                           ; 1 bytes @ 0xF
   577  002F                     	ds	1
   578  0030                     MFRC522_ToCard@sendLen:	
   579                           
   580                           ; 1 bytes @ 0x10
   581  0030                     	ds	1
   582  0031                     MFRC522_ToCard@backData:	
   583  0031                     printf@idx:	
   584                           ; 1 bytes @ 0x11
   585                           
   586                           
   587                           ; 1 bytes @ 0x11
   588  0031                     	ds	1
   589  0032                     MFRC522_ToCard@backLen:	
   590  0032                     printf@ap:	
   591                           ; 1 bytes @ 0x12
   592                           
   593                           
   594                           ; 1 bytes @ 0x12
   595  0032                     	ds	1
   596  0033                     ??_MFRC522_ToCard:	
   597  0033                     printf@flag:	
   598                           ; 0 bytes @ 0x13
   599                           
   600                           
   601                           ; 1 bytes @ 0x13
   602  0033                     	ds	1
   603  0034                     printf@prec:	
   604                           
   605                           ; 1 bytes @ 0x14
   606  0034                     	ds	1
   607  0035                     printf@_val:	
   608                           
   609                           ; 4 bytes @ 0x15
   610  0035                     	ds	4
   611  0039                     MFRC522_ToCard@waitIRq:	
   612  0039                     printf@f:	
   613                           ; 1 bytes @ 0x19
   614                           
   615                           
   616                           ; 1 bytes @ 0x19
   617  0039                     	ds	1
   618  003A                     MFRC522_ToCard@_status:	
   619  003A                     printf@c:	
   620                           ; 1 bytes @ 0x1A
   621                           
   622                           
   623                           ; 1 bytes @ 0x1A
   624  003A                     	ds	1
   625  003B                     MFRC522_ToCard@lastBits:	
   626                           
   627                           ; 1 bytes @ 0x1B
   628  003B                     	ds	1
   629  003C                     MFRC522_ToCard@irqEn:	
   630                           
   631                           ; 1 bytes @ 0x1C
   632  003C                     	ds	1
   633  003D                     MFRC522_ToCard@command:	
   634                           
   635                           ; 1 bytes @ 0x1D
   636  003D                     	ds	1
   637  003E                     MFRC522_ToCard@i:	
   638                           
   639                           ; 2 bytes @ 0x1E
   640  003E                     	ds	2
   641  0040                     MFRC522_ToCard@n:	
   642                           
   643                           ; 1 bytes @ 0x20
   644  0040                     	ds	1
   645  0041                     ??_MFRC522_AntiColl:	
   646  0041                     ?_MFRC522_Request:	
   647                           ; 0 bytes @ 0x21
   648                           
   649  0041                     MFRC522_Request@TagType:	
   650                           ; 1 bytes @ 0x21
   651                           
   652                           
   653                           ; 1 bytes @ 0x21
   654  0041                     	ds	1
   655  0042                     ??_MFRC522_Request:	
   656                           
   657                           ; 0 bytes @ 0x22
   658  0042                     	ds	4
   659  0046                     MFRC522_Request@reqMode:	
   660  0046                     MFRC522_AntiColl@serNumCheck:	
   661                           ; 1 bytes @ 0x26
   662                           
   663                           
   664                           ; 1 bytes @ 0x26
   665  0046                     	ds	1
   666  0047                     MFRC522_Request@_status:	
   667  0047                     MFRC522_AntiColl@unLen:	
   668                           ; 1 bytes @ 0x27
   669                           
   670                           
   671                           ; 2 bytes @ 0x27
   672  0047                     	ds	1
   673  0048                     MFRC522_Request@backBits:	
   674                           
   675                           ; 2 bytes @ 0x28
   676  0048                     	ds	1
   677  0049                     MFRC522_AntiColl@_status:	
   678                           
   679                           ; 1 bytes @ 0x29
   680  0049                     	ds	1
   681  004A                     ??_MFRC522_isCard:	
   682  004A                     MFRC522_AntiColl@i:	
   683                           ; 0 bytes @ 0x2A
   684                           
   685                           
   686                           ; 1 bytes @ 0x2A
   687  004A                     	ds	1
   688  004B                     MFRC522_AntiColl@serNum:	
   689  004B                     MFRC522_isCard@TagType:	
   690                           ; 1 bytes @ 0x2B
   691                           
   692                           
   693                           ; 1 bytes @ 0x2B
   694  004B                     	ds	1
   695  004C                     ??_MFRC522_ReadCardSerial:	
   696                           
   697                           ; 0 bytes @ 0x2C
   698  004C                     	ds	1
   699  004D                     MFRC522_ReadCardSerial@_status:	
   700                           
   701                           ; 1 bytes @ 0x2D
   702  004D                     	ds	1
   703  004E                     MFRC522_ReadCardSerial@str:	
   704                           
   705                           ; 1 bytes @ 0x2E
   706  004E                     	ds	1
   707  004F                     ??_main:	
   708                           
   709                           ; 0 bytes @ 0x2F
   710  004F                     	ds	3
   711  0052                     main@data:	
   712                           
   713                           ; 1 bytes @ 0x32
   714  0052                     	ds	1
   715  0053                     main@UID:	
   716                           
   717                           ; 6 bytes @ 0x33
   718  0053                     	ds	6
   719  0059                     main@i:	
   720                           
   721                           ; 2 bytes @ 0x39
   722  0059                     	ds	2
   723  005B                     main@i_369:	
   724                           
   725                           ; 2 bytes @ 0x3B
   726  005B                     	ds	2
   727  005D                     main@TagType:	
   728                           
   729                           ; 1 bytes @ 0x3D
   730  005D                     	ds	1
   731                           
   732                           	psect	maintext
   733  0236                     __pmaintext:	
   734 ;;
   735 ;;Main: autosize = 0, tempsize = 3, incstack = 0, save=0
   736 ;;
   737 ;; *************** function _main *****************
   738 ;; Defined at:
   739 ;;		line 558 in file "main.c"
   740 ;; Parameters:    Size  Location     Type
   741 ;;		None
   742 ;; Auto vars:     Size  Location     Type
   743 ;;  i               2   59[BANK0 ] int 
   744 ;;  data            1   50[BANK0 ] unsigned char 
   745 ;;  i               2   57[BANK0 ] int 
   746 ;;  UID             6   51[BANK0 ] unsigned char [6]
   747 ;;  TagType         1   61[BANK0 ] unsigned char 
   748 ;;  size            1    0        unsigned char 
   749 ;; Return value:  Size  Location     Type
   750 ;;		None               void
   751 ;; Registers used:
   752 ;;		wreg, fsr0l, fsr0h, status,2, status,0, btemp+1, pclath, cstack
   753 ;; Tracked objects:
   754 ;;		On entry : 17F/0
   755 ;;		On exit  : 0/0
   756 ;;		Unchanged: 0/0
   757 ;; Data sizes:     COMMON   BANK0   BANK1   BANK2
   758 ;;      Params:         0       0       0       0
   759 ;;      Locals:         0      12       0       0
   760 ;;      Temps:          0       3       0       0
   761 ;;      Totals:         0      15       0       0
   762 ;;Total ram usage:       15 bytes
   763 ;; Hardware stack levels required when called:    8
   764 ;; This function calls:
   765 ;;		_MFRC522_Init
   766 ;;		_MFRC522_ReadCardSerial
   767 ;;		_MFRC522_isCard
   768 ;;		_SPI_init
   769 ;;		_UART_available
   770 ;;		_UART_init
   771 ;;		_UART_read_byte
   772 ;;		_compare_card
   773 ;;		_printf
   774 ;;		_record_card
   775 ;; This function is called by:
   776 ;;		Startup code after reset
   777 ;; This function uses a non-reentrant model
   778 ;;
   779                           
   780                           
   781                           ;psect for function _main
   782  0236                     _main:	
   783                           
   784                           ;main.c: 560: char UID[6];
   785                           ;main.c: 561: unsigned char TagType;
   786                           ;main.c: 562: char size;
   787                           ;main.c: 564: UART_init();
   788                           
   789                           ;incstack = 0
   790                           ; Regs used in _main: [wreg-fsr0h+status,2+status,0+btemp+1+pclath+cstack]
   791  0236  272F               	fcall	_UART_init
   792                           
   793                           ;main.c: 566: SPI_init(0);
   794  0237  3000               	movlw	0
   795  0238  26BD               	fcall	_SPI_init
   796                           
   797                           ;main.c: 569: MFRC522_Init();
   798  0239  25BF               	fcall	_MFRC522_Init
   799                           
   800                           ;main.c: 571: TRISBbits.TRISB3 = 0;
   801  023A  1683               	bsf	3,5	;RP0=1, select bank1
   802  023B  1303               	bcf	3,6	;RP1=0, select bank1
   803  023C  1186               	bcf	6,3	;volatile
   804                           
   805                           ;main.c: 572: for(int i=0;i<10;i++)
   806  023D  1283               	bcf	3,5	;RP0=0, select bank0
   807  023E  1303               	bcf	3,6	;RP1=0, select bank0
   808  023F  01D9               	clrf	main@i
   809  0240  01DA               	clrf	main@i+1
   810  0241  085A               	movf	main@i+1,w
   811  0242  3A80               	xorlw	128
   812  0243  00FF               	movwf	127
   813  0244  3080               	movlw	128
   814  0245  027F               	subwf	127,w
   815  0246  1D03               	skipz
   816  0247  2A4A               	goto	u2955
   817  0248  300A               	movlw	10
   818  0249  0259               	subwf	main@i,w
   819  024A                     u2955:	
   820  024A  1803               	btfsc	3,0
   821  024B  2A7F               	goto	l2745
   822  024C                     l232:	
   823                           
   824                           ;main.c: 573: {
   825                           ;main.c: 574: PORTBbits.RB3 = 1;
   826  024C  1283               	bcf	3,5	;RP0=0, select bank0
   827  024D  1303               	bcf	3,6	;RP1=0, select bank0
   828  024E  1586               	bsf	6,3	;volatile
   829                           
   830                           ;main.c: 575: _delay((unsigned long)((250)*(16000000/4000.0)));
   831  024F  3006               	movlw	6
   832  0250  00D1               	movwf	??_main+2
   833  0251  3013               	movlw	19
   834  0252  00D0               	movwf	??_main+1
   835  0253  30B1               	movlw	177
   836  0254  00CF               	movwf	??_main
   837  0255                     u3047:	
   838  0255  0BCF               	decfsz	??_main,f
   839  0256  2A55               	goto	u3047
   840  0257  0BD0               	decfsz	??_main+1,f
   841  0258  2A55               	goto	u3047
   842  0259  0BD1               	decfsz	??_main+2,f
   843  025A  2A55               	goto	u3047
   844  025B  2A5C               	nop2
   845                           
   846                           ;main.c: 576: PORTBbits.RB3 = 0;
   847  025C  1283               	bcf	3,5	;RP0=0, select bank0
   848  025D  1303               	bcf	3,6	;RP1=0, select bank0
   849  025E  1186               	bcf	6,3	;volatile
   850                           
   851                           ;main.c: 577: _delay((unsigned long)((250)*(16000000/4000.0)));
   852  025F  3006               	movlw	6
   853  0260  00D1               	movwf	??_main+2
   854  0261  3013               	movlw	19
   855  0262  00D0               	movwf	??_main+1
   856  0263  30B1               	movlw	177
   857  0264  00CF               	movwf	??_main
   858  0265                     u3057:	
   859  0265  0BCF               	decfsz	??_main,f
   860  0266  2A65               	goto	u3057
   861  0267  0BD0               	decfsz	??_main+1,f
   862  0268  2A65               	goto	u3057
   863  0269  0BD1               	decfsz	??_main+2,f
   864  026A  2A65               	goto	u3057
   865  026B  2A6C               	nop2
   866  026C  3001               	movlw	1
   867  026D  1283               	bcf	3,5	;RP0=0, select bank0
   868  026E  1303               	bcf	3,6	;RP1=0, select bank0
   869  026F  07D9               	addwf	main@i,f
   870  0270  1803               	skipnc
   871  0271  0ADA               	incf	main@i+1,f
   872  0272  3000               	movlw	0
   873  0273  07DA               	addwf	main@i+1,f
   874  0274  085A               	movf	main@i+1,w
   875  0275  3A80               	xorlw	128
   876  0276  00FF               	movwf	127
   877  0277  3080               	movlw	128
   878  0278  027F               	subwf	127,w
   879  0279  1D03               	skipz
   880  027A  2A7D               	goto	u2965
   881  027B  300A               	movlw	10
   882  027C  0259               	subwf	main@i,w
   883  027D                     u2965:	
   884  027D  1C03               	skipc
   885  027E  2A4C               	goto	l232
   886  027F                     l2745:	
   887                           ;main.c: 578: }
   888                           ;main.c: 579: while(1)
   889                           
   890                           
   891                           ;main.c: 580: {
   892                           ;main.c: 582: if(UART_available())
   893  027F  27AF               	fcall	_UART_available
   894  0280  0876               	movf	?_UART_available+1,w
   895  0281  0475               	iorwf	?_UART_available,w
   896  0282  1903               	skipnz
   897  0283  2AA5               	goto	l2761
   898                           
   899                           ;main.c: 583: {
   900                           ;main.c: 584: char data = UART_read_byte();
   901  0284  2662               	fcall	_UART_read_byte
   902  0285  1283               	bcf	3,5	;RP0=0, select bank0
   903  0286  1303               	bcf	3,6	;RP1=0, select bank0
   904  0287  00CF               	movwf	??_main
   905  0288  084F               	movf	??_main,w
   906  0289  00D2               	movwf	main@data
   907                           
   908                           ;main.c: 585: if(data == 'c')
   909  028A  0852               	movf	main@data,w
   910  028B  3A63               	xorlw	99
   911  028C  1D03               	skipz
   912  028D  2AA5               	goto	l2761
   913                           
   914                           ;main.c: 586: {
   915                           ;main.c: 587: PORTBbits.RB3 = 1;
   916  028E  1586               	bsf	6,3	;volatile
   917                           
   918                           ;main.c: 588: record_card(UID);
   919  028F  3053               	movlw	main@UID& (0+255)
   920  0290  2530               	fcall	_record_card
   921                           
   922                           ;main.c: 589: printf("Cadastro feito\r\n");
   923  0291  3060               	movlw	(STR_1-__stringbase)& (0+255)
   924  0292  214F               	fcall	_printf
   925                           
   926                           ;main.c: 590: _delay((unsigned long)((250)*(16000000/4000.0)));
   927  0293  3006               	movlw	6
   928  0294  1283               	bcf	3,5	;RP0=0, select bank0
   929  0295  1303               	bcf	3,6	;RP1=0, select bank0
   930  0296  00D1               	movwf	??_main+2
   931  0297  3013               	movlw	19
   932  0298  00D0               	movwf	??_main+1
   933  0299  30B1               	movlw	177
   934  029A  00CF               	movwf	??_main
   935  029B                     u3067:	
   936  029B  0BCF               	decfsz	??_main,f
   937  029C  2A9B               	goto	u3067
   938  029D  0BD0               	decfsz	??_main+1,f
   939  029E  2A9B               	goto	u3067
   940  029F  0BD1               	decfsz	??_main+2,f
   941  02A0  2A9B               	goto	u3067
   942  02A1  2AA2               	nop2
   943                           
   944                           ;main.c: 591: PORTBbits.RB3 = 0;
   945  02A2  1283               	bcf	3,5	;RP0=0, select bank0
   946  02A3  1303               	bcf	3,6	;RP1=0, select bank0
   947  02A4  1186               	bcf	6,3	;volatile
   948  02A5                     l2761:	
   949                           
   950                           ;main.c: 592: }
   951                           ;main.c: 593: }
   952                           ;main.c: 595: if( MFRC522_isCard( &TagType ) )
   953  02A5  305D               	movlw	main@TagType& (0+255)
   954  02A6  2751               	fcall	_MFRC522_isCard
   955  02A7  3A00               	xorlw	0
   956  02A8  1903               	skipnz
   957  02A9  2AFB               	goto	l2789
   958                           
   959                           ;main.c: 596: {
   960                           ;main.c: 598: printf("Tipo de Tag: %u\n\r",TagType);
   961  02AA  1283               	bcf	3,5	;RP0=0, select bank0
   962  02AB  1303               	bcf	3,6	;RP1=0, select bank0
   963  02AC  085D               	movf	main@TagType,w
   964  02AD  00CF               	movwf	??_main
   965  02AE  01D0               	clrf	??_main+1
   966  02AF  084F               	movf	??_main,w
   967  02B0  00AC               	movwf	?_printf
   968  02B1  0850               	movf	??_main+1,w
   969  02B2  00AD               	movwf	?_printf+1
   970  02B3  303D               	movlw	(STR_2-__stringbase)& (0+255)
   971  02B4  214F               	fcall	_printf
   972                           
   973                           ;main.c: 600: if( MFRC522_ReadCardSerial( UID ) )
   974  02B5  3053               	movlw	main@UID& (0+255)
   975  02B6  26DD               	fcall	_MFRC522_ReadCardSerial
   976  02B7  3A00               	xorlw	0
   977  02B8  1903               	skipnz
   978  02B9  2AFB               	goto	l2789
   979                           
   980                           ;main.c: 601: {
   981                           ;main.c: 603: PORTBbits.RB3 = 1;
   982  02BA  1283               	bcf	3,5	;RP0=0, select bank0
   983  02BB  1303               	bcf	3,6	;RP1=0, select bank0
   984  02BC  1586               	bsf	6,3	;volatile
   985                           
   986                           ;main.c: 604: printf("Codigo: ");
   987  02BD  3071               	movlw	(STR_3-__stringbase)& (0+255)
   988  02BE  214F               	fcall	_printf
   989                           
   990                           ;main.c: 605: for(int i=0; i < 5; i++)
   991  02BF  1283               	bcf	3,5	;RP0=0, select bank0
   992  02C0  1303               	bcf	3,6	;RP1=0, select bank0
   993  02C1  01DB               	clrf	main@i_369
   994  02C2  01DC               	clrf	main@i_369+1
   995  02C3  085C               	movf	main@i_369+1,w
   996  02C4  3A80               	xorlw	128
   997  02C5  00FF               	movwf	127
   998  02C6  3080               	movlw	128
   999  02C7  027F               	subwf	127,w
  1000  02C8  1D03               	skipz
  1001  02C9  2ACC               	goto	u3015
  1002  02CA  3005               	movlw	5
  1003  02CB  025B               	subwf	main@i_369,w
  1004  02CC                     u3015:	
  1005  02CC  1803               	btfsc	3,0
  1006  02CD  2AF0               	goto	l2781
  1007  02CE                     l2775:	
  1008                           
  1009                           ;main.c: 606: {
  1010                           ;main.c: 607: printf("%X ",UID[i]);
  1011  02CE  1283               	bcf	3,5	;RP0=0, select bank0
  1012  02CF  1303               	bcf	3,6	;RP1=0, select bank0
  1013  02D0  085B               	movf	main@i_369,w
  1014  02D1  3E53               	addlw	main@UID& (0+255)
  1015  02D2  0084               	movwf	4
  1016  02D3  1383               	bcf	3,7	;select IRP bank0
  1017  02D4  0800               	movf	0,w
  1018  02D5  00CF               	movwf	??_main
  1019  02D6  01D0               	clrf	??_main+1
  1020  02D7  084F               	movf	??_main,w
  1021  02D8  00AC               	movwf	?_printf
  1022  02D9  0850               	movf	??_main+1,w
  1023  02DA  00AD               	movwf	?_printf+1
  1024  02DB  307A               	movlw	(STR_4-__stringbase)& (0+255)
  1025  02DC  214F               	fcall	_printf
  1026  02DD  3001               	movlw	1
  1027  02DE  1283               	bcf	3,5	;RP0=0, select bank0
  1028  02DF  1303               	bcf	3,6	;RP1=0, select bank0
  1029  02E0  07DB               	addwf	main@i_369,f
  1030  02E1  1803               	skipnc
  1031  02E2  0ADC               	incf	main@i_369+1,f
  1032  02E3  3000               	movlw	0
  1033  02E4  07DC               	addwf	main@i_369+1,f
  1034  02E5  085C               	movf	main@i_369+1,w
  1035  02E6  3A80               	xorlw	128
  1036  02E7  00FF               	movwf	127
  1037  02E8  3080               	movlw	128
  1038  02E9  027F               	subwf	127,w
  1039  02EA  1D03               	skipz
  1040  02EB  2AEE               	goto	u3025
  1041  02EC  3005               	movlw	5
  1042  02ED  025B               	subwf	main@i_369,w
  1043  02EE                     u3025:	
  1044  02EE  1C03               	skipc
  1045  02EF  2ACE               	goto	l2775
  1046  02F0                     l2781:	
  1047                           
  1048                           ;main.c: 608: }
  1049                           ;main.c: 609: printf("\n\r");
  1050  02F0  3026               	movlw	((STR_6+19)-__stringbase)& (0+255)
  1051  02F1  214F               	fcall	_printf
  1052                           
  1053                           ;main.c: 612: if(compare_card(UID))
  1054  02F2  3053               	movlw	main@UID& (0+255)
  1055  02F3  24E0               	fcall	_compare_card
  1056  02F4  3A00               	xorlw	0
  1057  02F5  1903               	skipnz
  1058  02F6  2AF9               	goto	l2787
  1059                           
  1060                           ;main.c: 613: {
  1061                           ;main.c: 614: printf("Carto reconhecido!\n\r");
  1062  02F7  3013               	movlw	(STR_6-__stringbase)& (0+255)
  1063  02F8  2AFA               	goto	L1
  1064  02F9                     l2787:	
  1065                           ;main.c: 615: }
  1066                           
  1067                           
  1068                           ;main.c: 616: else
  1069                           ;main.c: 617: {
  1070                           ;main.c: 618: printf("Cadastre o carto\n\r");
  1071  02F9  3029               	movlw	(STR_7-__stringbase)& (0+255)
  1072  02FA                     L1:	
  1073  02FA  214F               	fcall	_printf
  1074  02FB                     l2789:	
  1075                           
  1076                           ;main.c: 619: }
  1077                           ;main.c: 621: }
  1078                           ;main.c: 624: }
  1079                           ;main.c: 625: PORTBbits.RB3 = 0;
  1080  02FB  1283               	bcf	3,5	;RP0=0, select bank0
  1081  02FC  1303               	bcf	3,6	;RP1=0, select bank0
  1082  02FD  1186               	bcf	6,3	;volatile
  1083                           
  1084                           ;main.c: 626: _delay((unsigned long)((250)*(16000000/4000.0)));
  1085  02FE  3006               	movlw	6
  1086  02FF  00D1               	movwf	??_main+2
  1087  0300  3013               	movlw	19
  1088  0301  00D0               	movwf	??_main+1
  1089  0302  30B1               	movlw	177
  1090  0303  00CF               	movwf	??_main
  1091  0304                     u3077:	
  1092  0304  0BCF               	decfsz	??_main,f
  1093  0305  2B04               	goto	u3077
  1094  0306  0BD0               	decfsz	??_main+1,f
  1095  0307  2B04               	goto	u3077
  1096  0308  0BD1               	decfsz	??_main+2,f
  1097  0309  2B04               	goto	u3077
  1098  030A  2B0B               	nop2
  1099  030B  2A7F               	goto	l2745
  1100  030C                     __end_of_main:	
  1101                           
  1102                           	psect	text1
  1103  0530                     __ptext1:	
  1104 ;; *************** function _record_card *****************
  1105 ;; Defined at:
  1106 ;;		line 532 in file "main.c"
  1107 ;; Parameters:    Size  Location     Type
  1108 ;;  card            1    wreg     PTR unsigned char 
  1109 ;;		 -> main@UID(6), 
  1110 ;; Auto vars:     Size  Location     Type
  1111 ;;  card            1    2[BANK0 ] PTR unsigned char 
  1112 ;;		 -> main@UID(6), 
  1113 ;;  index           1    3[BANK0 ] unsigned char 
  1114 ;; Return value:  Size  Location     Type
  1115 ;;		None               void
  1116 ;; Registers used:
  1117 ;;		wreg, fsr0l, fsr0h, status,2, status,0, pclath, cstack
  1118 ;; Tracked objects:
  1119 ;;		On entry : 0/0
  1120 ;;		On exit  : 0/0
  1121 ;;		Unchanged: 0/0
  1122 ;; Data sizes:     COMMON   BANK0   BANK1   BANK2
  1123 ;;      Params:         0       0       0       0
  1124 ;;      Locals:         0       2       0       0
  1125 ;;      Temps:          0       1       0       0
  1126 ;;      Totals:         0       3       0       0
  1127 ;;Total ram usage:        3 bytes
  1128 ;; Hardware stack levels used:    1
  1129 ;; Hardware stack levels required when called:    3
  1130 ;; This function calls:
  1131 ;;		_eeprom_read
  1132 ;;		_eeprom_write
  1133 ;; This function is called by:
  1134 ;;		_main
  1135 ;; This function uses a non-reentrant model
  1136 ;;
  1137                           
  1138                           
  1139                           ;psect for function _record_card
  1140  0530                     _record_card:	
  1141                           
  1142                           ;incstack = 0
  1143                           ; Regs used in _record_card: [wreg-fsr0h+status,2+status,0+pclath+cstack]
  1144                           ;record_card@card stored from wreg
  1145  0530  1283               	bcf	3,5	;RP0=0, select bank0
  1146  0531  1303               	bcf	3,6	;RP1=0, select bank0
  1147  0532  00A2               	movwf	record_card@card
  1148                           
  1149                           ;main.c: 534: char index = eeprom_read(0);
  1150  0533  3000               	movlw	0
  1151  0534  26F3               	fcall	_eeprom_read
  1152  0535  1283               	bcf	3,5	;RP0=0, select bank0
  1153  0536  1303               	bcf	3,6	;RP1=0, select bank0
  1154  0537  00A1               	movwf	??_record_card
  1155  0538  0821               	movf	??_record_card,w
  1156  0539  00A3               	movwf	record_card@index
  1157                           
  1158                           ;main.c: 535: if(index == 0xff)
  1159  053A  0823               	movf	record_card@index,w
  1160  053B  3AFF               	xorlw	255
  1161  053C  1D03               	skipz
  1162  053D  2D46               	goto	l2535
  1163                           
  1164                           ;main.c: 536: {
  1165                           ;main.c: 537: eeprom_write(0,1);
  1166  053E  01F5               	clrf	eeprom_write@value
  1167  053F  0AF5               	incf	eeprom_write@value,f
  1168  0540  3000               	movlw	0
  1169  0541  2695               	fcall	_eeprom_write
  1170                           
  1171                           ;main.c: 538: index = 1;
  1172  0542  1283               	bcf	3,5	;RP0=0, select bank0
  1173  0543  1303               	bcf	3,6	;RP1=0, select bank0
  1174  0544  01A3               	clrf	record_card@index
  1175  0545  0AA3               	incf	record_card@index,f
  1176  0546                     l2535:	
  1177                           
  1178                           ;main.c: 539: }
  1179                           ;main.c: 540: eeprom_write(index,*card);
  1180  0546  0822               	movf	record_card@card,w
  1181  0547  0084               	movwf	4
  1182  0548  1383               	bcf	3,7	;select IRP bank0
  1183  0549  0800               	movf	0,w
  1184  054A  00A1               	movwf	??_record_card
  1185  054B  0821               	movf	??_record_card,w
  1186  054C  00F5               	movwf	eeprom_write@value
  1187  054D  0823               	movf	record_card@index,w
  1188  054E  2695               	fcall	_eeprom_write
  1189                           
  1190                           ;main.c: 541: eeprom_write(index+1,*(card+1));
  1191  054F  1283               	bcf	3,5	;RP0=0, select bank0
  1192  0550  1303               	bcf	3,6	;RP1=0, select bank0
  1193  0551  0A22               	incf	record_card@card,w
  1194  0552  0084               	movwf	4
  1195  0553  1383               	bcf	3,7	;select IRP bank0
  1196  0554  0800               	movf	0,w
  1197  0555  00A1               	movwf	??_record_card
  1198  0556  0821               	movf	??_record_card,w
  1199  0557  00F5               	movwf	eeprom_write@value
  1200  0558  0823               	movf	record_card@index,w
  1201  0559  3E01               	addlw	1
  1202  055A  2695               	fcall	_eeprom_write
  1203                           
  1204                           ;main.c: 542: eeprom_write(index+2,*(card+2));
  1205  055B  1283               	bcf	3,5	;RP0=0, select bank0
  1206  055C  1303               	bcf	3,6	;RP1=0, select bank0
  1207  055D  0822               	movf	record_card@card,w
  1208  055E  3E02               	addlw	2
  1209  055F  0084               	movwf	4
  1210  0560  1383               	bcf	3,7	;select IRP bank0
  1211  0561  0800               	movf	0,w
  1212  0562  00A1               	movwf	??_record_card
  1213  0563  0821               	movf	??_record_card,w
  1214  0564  00F5               	movwf	eeprom_write@value
  1215  0565  0823               	movf	record_card@index,w
  1216  0566  3E02               	addlw	2
  1217  0567  2695               	fcall	_eeprom_write
  1218                           
  1219                           ;main.c: 543: eeprom_write(index+3,*(card+3));
  1220  0568  1283               	bcf	3,5	;RP0=0, select bank0
  1221  0569  1303               	bcf	3,6	;RP1=0, select bank0
  1222  056A  0822               	movf	record_card@card,w
  1223  056B  3E03               	addlw	3
  1224  056C  0084               	movwf	4
  1225  056D  1383               	bcf	3,7	;select IRP bank0
  1226  056E  0800               	movf	0,w
  1227  056F  00A1               	movwf	??_record_card
  1228  0570  0821               	movf	??_record_card,w
  1229  0571  00F5               	movwf	eeprom_write@value
  1230  0572  0823               	movf	record_card@index,w
  1231  0573  3E03               	addlw	3
  1232  0574  2695               	fcall	_eeprom_write
  1233                           
  1234                           ;main.c: 544: eeprom_write(0,index+4);
  1235  0575  1283               	bcf	3,5	;RP0=0, select bank0
  1236  0576  1303               	bcf	3,6	;RP1=0, select bank0
  1237  0577  0823               	movf	record_card@index,w
  1238  0578  3E04               	addlw	4
  1239  0579  00A1               	movwf	??_record_card
  1240  057A  0821               	movf	??_record_card,w
  1241  057B  00F5               	movwf	eeprom_write@value
  1242  057C  3000               	movlw	0
  1243  057D  2695               	fcall	_eeprom_write
  1244  057E  0008               	return
  1245  057F                     __end_of_record_card:	
  1246                           
  1247                           	psect	text2
  1248  0695                     __ptext2:	
  1249 ;; *************** function _eeprom_write *****************
  1250 ;; Defined at:
  1251 ;;		line 6 in file "D:\Program Files (x86)\Microchip\xc8\v1.33\sources\pic\eewrite.c"
  1252 ;; Parameters:    Size  Location     Type
  1253 ;;  addr            1    wreg     unsigned char 
  1254 ;;  value           1    5[COMMON] unsigned char 
  1255 ;; Auto vars:     Size  Location     Type
  1256 ;;  addr            1    0[BANK0 ] unsigned char 
  1257 ;; Return value:  Size  Location     Type
  1258 ;;		None               void
  1259 ;; Registers used:
  1260 ;;		wreg, status,2, status,0
  1261 ;; Tracked objects:
  1262 ;;		On entry : 0/0
  1263 ;;		On exit  : 0/0
  1264 ;;		Unchanged: 0/0
  1265 ;; Data sizes:     COMMON   BANK0   BANK1   BANK2
  1266 ;;      Params:         1       0       0       0
  1267 ;;      Locals:         0       1       0       0
  1268 ;;      Temps:          1       0       0       0
  1269 ;;      Totals:         2       1       0       0
  1270 ;;Total ram usage:        3 bytes
  1271 ;; Hardware stack levels used:    1
  1272 ;; Hardware stack levels required when called:    2
  1273 ;; This function calls:
  1274 ;;		Nothing
  1275 ;; This function is called by:
  1276 ;;		_record_card
  1277 ;;		_clear_reg_cards
  1278 ;; This function uses a non-reentrant model
  1279 ;;
  1280                           
  1281                           
  1282                           ;psect for function _eeprom_write
  1283  0695                     _eeprom_write:	
  1284                           
  1285                           ;incstack = 0
  1286                           ; Regs used in _eeprom_write: [wreg+status,2+status,0]
  1287                           ;eeprom_write@addr stored from wreg
  1288  0695  1283               	bcf	3,5	;RP0=0, select bank0
  1289  0696  1303               	bcf	3,6	;RP1=0, select bank0
  1290  0697  00A0               	movwf	eeprom_write@addr
  1291  0698                     l322:	
  1292  0698  1683               	bsf	3,5	;RP0=1, select bank1
  1293  0699  1303               	bcf	3,6	;RP1=0, select bank1
  1294  069A  189C               	btfsc	28,1	;volsfr
  1295  069B  2E98               	goto	l322
  1296  069C  1283               	bcf	3,5	;RP0=0, select bank0
  1297  069D  1303               	bcf	3,6	;RP1=0, select bank0
  1298  069E  0820               	movf	eeprom_write@addr,w
  1299  069F  1683               	bsf	3,5	;RP0=1, select bank1
  1300  06A0  1303               	bcf	3,6	;RP1=0, select bank1
  1301  06A1  009B               	movwf	27	;volatile
  1302  06A2  0875               	movf	eeprom_write@value,w
  1303  06A3  009A               	movwf	26	;volatile
  1304  06A4  303F               	movlw	63
  1305  06A5  00F6               	movwf	??_eeprom_write
  1306  06A6  0876               	movf	??_eeprom_write,w
  1307  06A7  059C               	andwf	28,f	;volsfr
  1308  06A8  1283               	bcf	3,5	;RP0=0, select bank0
  1309  06A9  1303               	bcf	3,6	;RP1=0, select bank0
  1310  06AA  1003               	bcf	3,0	;volatile
  1311  06AB  1B8B               	btfsc	11,7	;volatile
  1312  06AC  1403               	bsf	3,0	;volatile
  1313  06AD  138B               	bcf	11,7	;volatile
  1314  06AE  1683               	bsf	3,5	;RP0=1, select bank1
  1315  06AF  1303               	bcf	3,6	;RP1=0, select bank1
  1316  06B0  151C               	bsf	28,2	;volsfr
  1317  06B1  3055               	movlw	85
  1318  06B2  009D               	movwf	29	;volsfr
  1319  06B3  30AA               	movlw	170
  1320  06B4  009D               	movwf	29	;volsfr
  1321  06B5  149C               	bsf	28,1	;volsfr
  1322  06B6  111C               	bcf	28,2	;volsfr
  1323  06B7  1283               	bcf	3,5	;RP0=0, select bank0
  1324  06B8  1303               	bcf	3,6	;RP1=0, select bank0
  1325  06B9  1C03               	btfss	3,0	;volatile
  1326  06BA  0008               	return
  1327  06BB  178B               	bsf	11,7	;volatile
  1328  06BC  0008               	return
  1329  06BD                     __end_of_eeprom_write:	
  1330                           
  1331                           	psect	text3
  1332  014F                     __ptext3:	
  1333 ;; *************** function _printf *****************
  1334 ;; Defined at:
  1335 ;;		line 464 in file "D:\Program Files (x86)\Microchip\xc8\v1.33\sources\common\doprnt.c"
  1336 ;; Parameters:    Size  Location     Type
  1337 ;;  f               1    wreg     PTR const unsigned char 
  1338 ;;		 -> STR_7(20), STR_6(22), STR_5(3), STR_4(4), 
  1339 ;;		 -> STR_3(9), STR_2(18), STR_1(17), 
  1340 ;; Auto vars:     Size  Location     Type
  1341 ;;  f               1   25[BANK0 ] PTR const unsigned char 
  1342 ;;		 -> STR_7(20), STR_6(22), STR_5(3), STR_4(4), 
  1343 ;;		 -> STR_3(9), STR_2(18), STR_1(17), 
  1344 ;;  idx             1   17[BANK0 ] unsigned char 
  1345 ;;  _val            4   21[BANK0 ] struct .
  1346 ;;  c               1   26[BANK0 ] char 
  1347 ;;  prec            1   20[BANK0 ] char 
  1348 ;;  flag            1   19[BANK0 ] unsigned char 
  1349 ;;  ap              1   18[BANK0 ] PTR void [1]
  1350 ;;		 -> ?_printf(2), 
  1351 ;; Return value:  Size  Location     Type
  1352 ;;                  2   12[BANK0 ] int 
  1353 ;; Registers used:
  1354 ;;		wreg, fsr0l, fsr0h, status,2, status,0, btemp+1, pclath, cstack
  1355 ;; Tracked objects:
  1356 ;;		On entry : 0/0
  1357 ;;		On exit  : 0/0
  1358 ;;		Unchanged: 0/0
  1359 ;; Data sizes:     COMMON   BANK0   BANK1   BANK2
  1360 ;;      Params:         0       2       0       0
  1361 ;;      Locals:         0      10       0       0
  1362 ;;      Temps:          0       3       0       0
  1363 ;;      Totals:         0      15       0       0
  1364 ;;Total ram usage:       15 bytes
  1365 ;; Hardware stack levels used:    1
  1366 ;; Hardware stack levels required when called:    3
  1367 ;; This function calls:
  1368 ;;		___lwdiv
  1369 ;;		___lwmod
  1370 ;;		_putch
  1371 ;; This function is called by:
  1372 ;;		_main
  1373 ;; This function uses a non-reentrant model
  1374 ;;
  1375                           
  1376                           
  1377                           ;psect for function _printf
  1378  014F                     _printf:	
  1379                           
  1380                           ;incstack = 0
  1381                           ; Regs used in _printf: [wreg-fsr0h+status,2+status,0+btemp+1+pclath+cstack]
  1382                           ;printf@f stored from wreg
  1383  014F  1283               	bcf	3,5	;RP0=0, select bank0
  1384  0150  1303               	bcf	3,6	;RP1=0, select bank0
  1385  0151  00B9               	movwf	printf@f
  1386                           
  1387                           ;doprnt.c: 466: va_list ap;
  1388                           ;doprnt.c: 499: signed char c;
  1389                           ;doprnt.c: 506: signed char prec;
  1390                           ;doprnt.c: 508: unsigned char flag;
  1391                           ;doprnt.c: 527: union {
  1392                           ;doprnt.c: 528: unsigned int _val;
  1393                           ;doprnt.c: 529: struct {
  1394                           ;doprnt.c: 530: const char * _cp;
  1395                           ;doprnt.c: 531: unsigned _len;
  1396                           ;doprnt.c: 532: } _str;
  1397                           ;doprnt.c: 533: } _val;
  1398                           ;doprnt.c: 542: *ap = __va_start();
  1399  0152  302C               	movlw	?_printf& (0+255)
  1400  0153  00AE               	movwf	??_printf
  1401  0154  082E               	movf	??_printf,w
  1402  0155  00B2               	movwf	printf@ap
  1403  0156                     l2605:	
  1404                           ;doprnt.c: 545: while(c = *f++) {
  1405                           
  1406  0156  3001               	movlw	1
  1407  0157  1283               	bcf	3,5	;RP0=0, select bank0
  1408  0158  1303               	bcf	3,6	;RP1=0, select bank0
  1409  0159  07B9               	addwf	printf@f,f
  1410  015A  30FF               	movlw	-1
  1411  015B  0739               	addwf	printf@f,w
  1412  015C  0084               	movwf	4
  1413  015D  2400               	fcall	stringdir
  1414  015E  00AE               	movwf	??_printf
  1415  015F  082E               	movf	??_printf,w
  1416  0160  00BA               	movwf	printf@c
  1417  0161  08BA               	movf	printf@c,f
  1418  0162  1903               	btfsc	3,2
  1419  0163  0008               	return
  1420                           
  1421                           ;doprnt.c: 547: if(c != '%')
  1422  0164  083A               	movf	printf@c,w
  1423  0165  3A25               	xorlw	37
  1424  0166  1903               	skipnz
  1425  0167  296B               	goto	l2549
  1426                           
  1427                           ;doprnt.c: 549: {
  1428                           ;doprnt.c: 550: (putch(c) );
  1429  0168  083A               	movf	printf@c,w
  1430  0169  27A7               	fcall	_putch
  1431                           
  1432                           ;doprnt.c: 551: continue;
  1433  016A  2956               	goto	l2605
  1434  016B                     l2549:	
  1435                           
  1436                           ;doprnt.c: 552: }
  1437                           ;doprnt.c: 557: flag = 0;
  1438  016B  1283               	bcf	3,5	;RP0=0, select bank0
  1439  016C  1303               	bcf	3,6	;RP1=0, select bank0
  1440  016D  01B3               	clrf	printf@flag
  1441                           
  1442                           ;doprnt.c: 644: switch(c = *f++) {
  1443  016E  2976               	goto	l2555
  1444  016F                     l265:	
  1445                           ;doprnt.c: 721: case 'X':
  1446                           
  1447                           ;doprnt.c: 647: goto alldone;
  1448                           
  1449                           ;doprnt.c: 646: case 0:
  1450                           
  1451                           
  1452                           ;doprnt.c: 727: case 'x':
  1453                           ;doprnt.c: 730: flag |= 0x80;
  1454  016F  17B3               	bsf	printf@flag,7
  1455                           
  1456                           ;doprnt.c: 732: break;
  1457  0170  298A               	goto	l2557
  1458  0171                     l2551:	
  1459                           ;doprnt.c: 826: case 'u':
  1460                           
  1461                           ;doprnt.c: 822: continue;
  1462                           
  1463                           ;doprnt.c: 811: default:
  1464                           
  1465                           
  1466                           ;doprnt.c: 827: flag |= 0xC0;
  1467  0171  30C0               	movlw	192
  1468  0172  00AE               	movwf	??_printf
  1469  0173  082E               	movf	??_printf,w
  1470  0174  04B3               	iorwf	printf@flag,f
  1471                           
  1472                           ;doprnt.c: 831: }
  1473                           
  1474                           ;doprnt.c: 828: break;
  1475  0175  298A               	goto	l2557
  1476  0176                     l2555:	
  1477  0176  3001               	movlw	1
  1478  0177  07B9               	addwf	printf@f,f
  1479  0178  30FF               	movlw	-1
  1480  0179  0739               	addwf	printf@f,w
  1481  017A  0084               	movwf	4
  1482  017B  2400               	fcall	stringdir
  1483  017C  00BA               	movwf	printf@c
  1484                           
  1485                           ; Switch size 1, requested type "space"
  1486                           ; Number of cases is 4, Range of values is 0 to 120
  1487                           ; switch strategies available:
  1488                           ; Name         Instructions Cycles
  1489                           ; simple_byte           13     7 (average)
  1490                           ; direct_byte          127     6 (fixed)
  1491                           ; jumptable            260     6 (fixed)
  1492                           ;	Chosen strategy is simple_byte
  1493  017D  3A00               	xorlw	0	; case 0
  1494  017E  1903               	skipnz
  1495  017F  2A35               	goto	l287
  1496  0180  3A58               	xorlw	88	; case 88
  1497  0181  1903               	skipnz
  1498  0182  296F               	goto	l265
  1499  0183  3A2D               	xorlw	45	; case 117
  1500  0184  1903               	skipnz
  1501  0185  2971               	goto	l2551
  1502  0186  3A0D               	xorlw	13	; case 120
  1503  0187  1903               	skipnz
  1504  0188  296F               	goto	l265
  1505  0189  2956               	goto	l2605
  1506  018A                     l2557:	
  1507                           
  1508                           ;doprnt.c: 1282: {
  1509                           ;doprnt.c: 1295: _val._val = (*(unsigned *)__va_arg((*(unsigned **)ap), (unsigned)0));
  1510  018A  0832               	movf	printf@ap,w
  1511  018B  0084               	movwf	4
  1512  018C  1383               	bcf	3,7	;select IRP bank0
  1513  018D  0800               	movf	0,w
  1514  018E  00B5               	movwf	printf@_val
  1515  018F  0A84               	incf	4,f
  1516  0190  0800               	movf	0,w
  1517  0191  00B6               	movwf	printf@_val+1
  1518  0192  3002               	movlw	2
  1519  0193  00AE               	movwf	??_printf
  1520  0194  082E               	movf	??_printf,w
  1521  0195  07B2               	addwf	printf@ap,f
  1522                           
  1523                           ;doprnt.c: 1296: }
  1524                           ;doprnt.c: 1303: switch((unsigned char)(flag & (0xC0))) {
  1525  0196  29CF               	goto	l2587
  1526  0197                     l270:	
  1527                           ;doprnt.c: 1311: case 0xC0:
  1528                           
  1529                           
  1530                           ;doprnt.c: 1314: for(c = 1 ; c != sizeof dpowers/sizeof dpowers[0] ; c++)
  1531  0197  01BA               	clrf	printf@c
  1532  0198  0ABA               	incf	printf@c,f
  1533  0199                     L3:	
  1534  0199  083A               	movf	printf@c,w
  1535  019A  3A05               	xorlw	5
  1536  019B  1903               	btfsc	3,2
  1537  019C  29D8               	goto	l2589
  1538                           
  1539                           ;doprnt.c: 1315: if(_val._val < dpowers[c])
  1540  019D  083A               	movf	printf@c,w
  1541  019E  00AE               	movwf	??_printf
  1542  019F  072E               	addwf	??_printf,w
  1543  01A0  3E01               	addlw	low (_dpowers-__stringbase)
  1544  01A1  0084               	movwf	4
  1545  01A2  2400               	fcall	stringdir
  1546  01A3  00AF               	movwf	??_printf+1
  1547  01A4  2400               	fcall	stringdir
  1548  01A5  00B0               	movwf	??_printf+2
  1549  01A6  0830               	movf	??_printf+2,w
  1550  01A7  0236               	subwf	printf@_val+1,w
  1551  01A8  1D03               	skipz
  1552  01A9  29AC               	goto	u2675
  1553  01AA  082F               	movf	??_printf+1,w
  1554  01AB  0235               	subwf	printf@_val,w
  1555  01AC                     u2675:	
  1556  01AC  1C03               	btfss	3,0
  1557  01AD  29D8               	goto	l2589
  1558                           
  1559                           ;doprnt.c: 1316: break;
  1560  01AE  3001               	movlw	1
  1561  01AF  00AE               	movwf	??_printf
  1562  01B0  082E               	movf	??_printf,w
  1563  01B1  07BA               	addwf	printf@c,f
  1564  01B2  2999               	goto	L3
  1565  01B3                     l275:	
  1566                           ;doprnt.c: 1323: case 0x80:
  1567                           
  1568                           ;doprnt.c: 1318: break;
  1569                           
  1570                           
  1571                           ;doprnt.c: 1325: for(c = 1 ; c != sizeof hexpowers/sizeof hexpowers[0] ; c++)
  1572  01B3  01BA               	clrf	printf@c
  1573  01B4  0ABA               	incf	printf@c,f
  1574  01B5                     L4:	
  1575  01B5  083A               	movf	printf@c,w
  1576  01B6  3A04               	xorlw	4
  1577  01B7  1903               	btfsc	3,2
  1578  01B8  29D8               	goto	l2589
  1579                           
  1580                           ;doprnt.c: 1326: if(_val._val < hexpowers[c])
  1581  01B9  083A               	movf	printf@c,w
  1582  01BA  00AE               	movwf	??_printf
  1583  01BB  072E               	addwf	??_printf,w
  1584  01BC  3E0B               	addlw	low (_hexpowers-__stringbase)
  1585  01BD  0084               	movwf	4
  1586  01BE  2400               	fcall	stringdir
  1587  01BF  00AF               	movwf	??_printf+1
  1588  01C0  2400               	fcall	stringdir
  1589  01C1  00B0               	movwf	??_printf+2
  1590  01C2  0830               	movf	??_printf+2,w
  1591  01C3  0236               	subwf	printf@_val+1,w
  1592  01C4  1D03               	skipz
  1593  01C5  29C8               	goto	u2705
  1594  01C6  082F               	movf	??_printf+1,w
  1595  01C7  0235               	subwf	printf@_val,w
  1596  01C8                     u2705:	
  1597  01C8  1C03               	btfss	3,0
  1598  01C9  29D8               	goto	l2589
  1599                           
  1600                           ;doprnt.c: 1327: break;
  1601  01CA  3001               	movlw	1
  1602  01CB  00AE               	movwf	??_printf
  1603  01CC  082E               	movf	??_printf,w
  1604  01CD  07BA               	addwf	printf@c,f
  1605  01CE  29B5               	goto	L4
  1606  01CF                     l2587:	
  1607                           ;doprnt.c: 1345: }
  1608                           
  1609                           ;doprnt.c: 1329: break;
  1610                           
  1611  01CF  0833               	movf	printf@flag,w
  1612  01D0  39C0               	andlw	192
  1613                           
  1614                           ; Switch size 1, requested type "space"
  1615                           ; Number of cases is 2, Range of values is 128 to 192
  1616                           ; switch strategies available:
  1617                           ; Name         Instructions Cycles
  1618                           ; simple_byte            7     4 (average)
  1619                           ; direct_byte           74     9 (fixed)
  1620                           ; jumptable            263     9 (fixed)
  1621                           ;	Chosen strategy is simple_byte
  1622  01D1  3A80               	xorlw	128	; case 128
  1623  01D2  1903               	skipnz
  1624  01D3  29B3               	goto	l275
  1625  01D4  3A40               	xorlw	64	; case 192
  1626  01D5  1903               	skipnz
  1627  01D6  2997               	goto	l270
  1628  01D7  29D8               	goto	l2589
  1629  01D8                     l2589:	
  1630                           
  1631                           ;doprnt.c: 1431: {
  1632                           ;doprnt.c: 1478: }
  1633                           ;doprnt.c: 1481: prec = c;
  1634  01D8  083A               	movf	printf@c,w
  1635  01D9  00AE               	movwf	??_printf
  1636  01DA  082E               	movf	??_printf,w
  1637  01DB  00B4               	movwf	printf@prec
  1638                           
  1639                           ;doprnt.c: 1483: while(prec--) {
  1640  01DC  2A21               	goto	l2603
  1641  01DD                     l2591:	
  1642                           ;doprnt.c: 1487: {
  1643                           ;doprnt.c: 1495: case 0xC0:
  1644                           
  1645                           ;doprnt.c: 1485: switch((unsigned char)(flag & (0xC0)))
  1646                           
  1647                           
  1648                           ;doprnt.c: 1498: c = (_val._val / dpowers[prec]) % 10 + '0';
  1649  01DD  300A               	movlw	10
  1650  01DE  00A7               	movwf	___lwmod@divisor
  1651  01DF  3000               	movlw	0
  1652  01E0  00A8               	movwf	___lwmod@divisor+1
  1653  01E1  0834               	movf	printf@prec,w
  1654  01E2  00AE               	movwf	??_printf
  1655  01E3  072E               	addwf	??_printf,w
  1656  01E4  3E01               	addlw	low (_dpowers-__stringbase)
  1657  01E5  0084               	movwf	4
  1658  01E6  2400               	fcall	stringdir
  1659  01E7  00A0               	movwf	___lwdiv@divisor
  1660  01E8  2400               	fcall	stringdir
  1661  01E9  00A1               	movwf	___lwdiv@divisor+1
  1662  01EA  0836               	movf	printf@_val+1,w
  1663  01EB  01A3               	clrf	___lwdiv@dividend+1
  1664  01EC  07A3               	addwf	___lwdiv@dividend+1,f
  1665  01ED  0835               	movf	printf@_val,w
  1666  01EE  01A2               	clrf	___lwdiv@dividend
  1667  01EF  07A2               	addwf	___lwdiv@dividend,f
  1668  01F0  257F               	fcall	___lwdiv
  1669  01F1  1283               	bcf	3,5	;RP0=0, select bank0
  1670  01F2  1303               	bcf	3,6	;RP1=0, select bank0
  1671  01F3  0821               	movf	?___lwdiv+1,w
  1672  01F4  01AA               	clrf	___lwmod@dividend+1
  1673  01F5  07AA               	addwf	___lwmod@dividend+1,f
  1674  01F6  0820               	movf	?___lwdiv,w
  1675  01F7  01A9               	clrf	___lwmod@dividend
  1676  01F8  07A9               	addwf	___lwmod@dividend,f
  1677  01F9  25F7               	fcall	___lwmod
  1678  01FA  1283               	bcf	3,5	;RP0=0, select bank0
  1679  01FB  1303               	bcf	3,6	;RP1=0, select bank0
  1680  01FC  0827               	movf	?___lwmod,w
  1681  01FD  3E30               	addlw	48
  1682  01FE  00AF               	movwf	??_printf+1
  1683  01FF  082F               	movf	??_printf+1,w
  1684  0200  2A1E               	goto	L2
  1685  0201                     l2593:	
  1686                           ;doprnt.c: 1506: case 0x80:
  1687                           
  1688                           ;doprnt.c: 1500: break;
  1689                           
  1690                           
  1691                           ;doprnt.c: 1508: {
  1692                           ;doprnt.c: 1509: unsigned char idx = (_val._val / hexpowers[prec]) & 0xF;
  1693  0201  0834               	movf	printf@prec,w
  1694  0202  00AE               	movwf	??_printf
  1695  0203  072E               	addwf	??_printf,w
  1696  0204  3E0B               	addlw	low (_hexpowers-__stringbase)
  1697  0205  0084               	movwf	4
  1698  0206  2400               	fcall	stringdir
  1699  0207  00A0               	movwf	___lwdiv@divisor
  1700  0208  2400               	fcall	stringdir
  1701  0209  00A1               	movwf	___lwdiv@divisor+1
  1702  020A  0836               	movf	printf@_val+1,w
  1703  020B  01A3               	clrf	___lwdiv@dividend+1
  1704  020C  07A3               	addwf	___lwdiv@dividend+1,f
  1705  020D  0835               	movf	printf@_val,w
  1706  020E  01A2               	clrf	___lwdiv@dividend
  1707  020F  07A2               	addwf	___lwdiv@dividend,f
  1708  0210  257F               	fcall	___lwdiv
  1709  0211  1283               	bcf	3,5	;RP0=0, select bank0
  1710  0212  1303               	bcf	3,6	;RP1=0, select bank0
  1711  0213  0820               	movf	?___lwdiv,w
  1712  0214  390F               	andlw	15
  1713  0215  00AF               	movwf	??_printf+1
  1714  0216  082F               	movf	??_printf+1,w
  1715  0217  00B1               	movwf	printf@idx
  1716                           
  1717                           ;doprnt.c: 1513: c = "0123456789ABCDEF"[idx];
  1718  0218  0831               	movf	printf@idx,w
  1719  0219  3E4F               	addlw	low (STR_8-__stringbase)
  1720  021A  0084               	movwf	4
  1721  021B  2400               	fcall	stringdir
  1722  021C  00AE               	movwf	??_printf
  1723  021D  082E               	movf	??_printf,w
  1724  021E                     L2:	
  1725  021E  00BA               	movwf	printf@c
  1726  021F                     l2601:	
  1727                           ;doprnt.c: 1532: }
  1728                           
  1729                           ;doprnt.c: 1517: }
  1730                           ;doprnt.c: 1519: break;
  1731                           
  1732                           
  1733                           ;doprnt.c: 1533: (putch(c) );
  1734  021F  083A               	movf	printf@c,w
  1735  0220  27A7               	fcall	_putch
  1736  0221                     l2603:	
  1737  0221  30FF               	movlw	-1
  1738  0222  1283               	bcf	3,5	;RP0=0, select bank0
  1739  0223  1303               	bcf	3,6	;RP1=0, select bank0
  1740  0224  00AE               	movwf	??_printf
  1741  0225  082E               	movf	??_printf,w
  1742  0226  07B4               	addwf	printf@prec,f
  1743  0227  0834               	movf	printf@prec,w
  1744  0228  3AFF               	xorlw	-1
  1745  0229  1903               	btfsc	3,2
  1746  022A  2956               	goto	l2605
  1747  022B  0833               	movf	printf@flag,w
  1748  022C  39C0               	andlw	192
  1749                           
  1750                           ; Switch size 1, requested type "space"
  1751                           ; Number of cases is 2, Range of values is 128 to 192
  1752                           ; switch strategies available:
  1753                           ; Name         Instructions Cycles
  1754                           ; simple_byte            7     4 (average)
  1755                           ; direct_byte           74     9 (fixed)
  1756                           ; jumptable            263     9 (fixed)
  1757                           ;	Chosen strategy is simple_byte
  1758  022D  3A80               	xorlw	128	; case 128
  1759  022E  1903               	skipnz
  1760  022F  2A01               	goto	l2593
  1761  0230  3A40               	xorlw	64	; case 192
  1762  0231  1903               	skipnz
  1763  0232  29DD               	goto	l2591
  1764  0233  2A1F               	goto	l2601
  1765  0234  2A1F               	goto	l2601
  1766  0235                     l287:	
  1767                           ;doprnt.c: 1549: return 0;
  1768                           ;	Return value of _printf is never used
  1769                           
  1770                           ;doprnt.c: 1534: }
  1771                           ;doprnt.c: 1542: }
  1772                           ;doprnt.c: 1544: alldone:
  1773                           
  1774  0235  0008               	return
  1775  0236                     __end_of_printf:	
  1776                           
  1777                           	psect	text4
  1778  07A7                     __ptext4:	
  1779 ;; *************** function _putch *****************
  1780 ;; Defined at:
  1781 ;;		line 8 in file "UART.c"
  1782 ;; Parameters:    Size  Location     Type
  1783 ;;  data            1    wreg     unsigned char 
  1784 ;; Auto vars:     Size  Location     Type
  1785 ;;  data            1    5[COMMON] unsigned char 
  1786 ;; Return value:  Size  Location     Type
  1787 ;;		None               void
  1788 ;; Registers used:
  1789 ;;		wreg
  1790 ;; Tracked objects:
  1791 ;;		On entry : 0/0
  1792 ;;		On exit  : 0/0
  1793 ;;		Unchanged: 0/0
  1794 ;; Data sizes:     COMMON   BANK0   BANK1   BANK2
  1795 ;;      Params:         0       0       0       0
  1796 ;;      Locals:         1       0       0       0
  1797 ;;      Temps:          0       0       0       0
  1798 ;;      Totals:         1       0       0       0
  1799 ;;Total ram usage:        1 bytes
  1800 ;; Hardware stack levels used:    1
  1801 ;; Hardware stack levels required when called:    2
  1802 ;; This function calls:
  1803 ;;		Nothing
  1804 ;; This function is called by:
  1805 ;;		_printf
  1806 ;; This function uses a non-reentrant model
  1807 ;;
  1808                           
  1809                           
  1810                           ;psect for function _putch
  1811  07A7                     _putch:	
  1812                           
  1813                           ;incstack = 0
  1814                           ; Regs used in _putch: [wreg]
  1815                           ;putch@data stored from wreg
  1816  07A7  00F5               	movwf	putch@data
  1817  07A8                     l41:	
  1818                           ;UART.c: 11: continue;
  1819                           
  1820                           ;UART.c: 10: while(!TXIF)
  1821                           
  1822  07A8  1283               	bcf	3,5	;RP0=0, select bank0
  1823  07A9  1303               	bcf	3,6	;RP1=0, select bank0
  1824  07AA  1E0C               	btfss	12,4	;volatile
  1825  07AB  2FA8               	goto	l41
  1826                           
  1827                           ;UART.c: 12: TXREG = data;
  1828  07AC  0875               	movf	putch@data,w
  1829  07AD  0099               	movwf	25	;volatile
  1830  07AE  0008               	return
  1831  07AF                     __end_of_putch:	
  1832                           
  1833                           	psect	text5
  1834  05F7                     __ptext5:	
  1835 ;; *************** function ___lwmod *****************
  1836 ;; Defined at:
  1837 ;;		line 6 in file "D:\Program Files (x86)\Microchip\xc8\v1.33\sources\common\lwmod.c"
  1838 ;; Parameters:    Size  Location     Type
  1839 ;;  divisor         2    7[BANK0 ] unsigned int 
  1840 ;;  dividend        2    9[BANK0 ] unsigned int 
  1841 ;; Auto vars:     Size  Location     Type
  1842 ;;  counter         1   11[BANK0 ] unsigned char 
  1843 ;; Return value:  Size  Location     Type
  1844 ;;                  2    7[BANK0 ] unsigned int 
  1845 ;; Registers used:
  1846 ;;		wreg, status,2, status,0
  1847 ;; Tracked objects:
  1848 ;;		On entry : 0/0
  1849 ;;		On exit  : 0/0
  1850 ;;		Unchanged: 0/0
  1851 ;; Data sizes:     COMMON   BANK0   BANK1   BANK2
  1852 ;;      Params:         0       4       0       0
  1853 ;;      Locals:         0       1       0       0
  1854 ;;      Temps:          1       0       0       0
  1855 ;;      Totals:         1       5       0       0
  1856 ;;Total ram usage:        6 bytes
  1857 ;; Hardware stack levels used:    1
  1858 ;; Hardware stack levels required when called:    2
  1859 ;; This function calls:
  1860 ;;		Nothing
  1861 ;; This function is called by:
  1862 ;;		_printf
  1863 ;; This function uses a non-reentrant model
  1864 ;;
  1865                           
  1866                           
  1867                           ;psect for function ___lwmod
  1868  05F7                     ___lwmod:	
  1869                           
  1870                           ;incstack = 0
  1871                           ; Regs used in ___lwmod: [wreg+status,2+status,0]
  1872  05F7  1283               	bcf	3,5	;RP0=0, select bank0
  1873  05F8  1303               	bcf	3,6	;RP1=0, select bank0
  1874  05F9  0828               	movf	___lwmod@divisor+1,w
  1875  05FA  0427               	iorwf	___lwmod@divisor,w
  1876  05FB  1903               	skipnz
  1877  05FC  2E26               	goto	l2421
  1878  05FD  01AB               	clrf	___lwmod@counter
  1879  05FE  0AAB               	incf	___lwmod@counter,f
  1880  05FF                     l2411:	
  1881  05FF  1BA8               	btfsc	___lwmod@divisor+1,7
  1882  0600  2E0D               	goto	l2413
  1883  0601  3001               	movlw	1
  1884  0602                     u2465:	
  1885  0602  1003               	clrc
  1886  0603  0DA7               	rlf	___lwmod@divisor,f
  1887  0604  0DA8               	rlf	___lwmod@divisor+1,f
  1888  0605  3EFF               	addlw	-1
  1889  0606  1D03               	skipz
  1890  0607  2E02               	goto	u2465
  1891  0608  3001               	movlw	1
  1892  0609  00F6               	movwf	??___lwmod
  1893  060A  0876               	movf	??___lwmod,w
  1894  060B  07AB               	addwf	___lwmod@counter,f
  1895  060C  2DFF               	goto	l2411
  1896  060D                     l2413:	
  1897  060D  0828               	movf	___lwmod@divisor+1,w
  1898  060E  022A               	subwf	___lwmod@dividend+1,w
  1899  060F  1D03               	skipz
  1900  0610  2E13               	goto	u2485
  1901  0611  0827               	movf	___lwmod@divisor,w
  1902  0612  0229               	subwf	___lwmod@dividend,w
  1903  0613                     u2485:	
  1904  0613  1C03               	skipc
  1905  0614  2E1B               	goto	l2417
  1906  0615  0827               	movf	___lwmod@divisor,w
  1907  0616  02A9               	subwf	___lwmod@dividend,f
  1908  0617  0828               	movf	___lwmod@divisor+1,w
  1909  0618  1C03               	skipc
  1910  0619  03AA               	decf	___lwmod@dividend+1,f
  1911  061A  02AA               	subwf	___lwmod@dividend+1,f
  1912  061B                     l2417:	
  1913  061B  3001               	movlw	1
  1914  061C                     u2495:	
  1915  061C  1003               	clrc
  1916  061D  0CA8               	rrf	___lwmod@divisor+1,f
  1917  061E  0CA7               	rrf	___lwmod@divisor,f
  1918  061F  3EFF               	addlw	-1
  1919  0620  1D03               	skipz
  1920  0621  2E1C               	goto	u2495
  1921  0622  3001               	movlw	1
  1922  0623  02AB               	subwf	___lwmod@counter,f
  1923  0624  1D03               	btfss	3,2
  1924  0625  2E0D               	goto	l2413
  1925  0626                     l2421:	
  1926  0626  082A               	movf	___lwmod@dividend+1,w
  1927  0627  01A8               	clrf	?___lwmod+1
  1928  0628  07A8               	addwf	?___lwmod+1,f
  1929  0629  0829               	movf	___lwmod@dividend,w
  1930  062A  01A7               	clrf	?___lwmod
  1931  062B  07A7               	addwf	?___lwmod,f
  1932  062C  0008               	return
  1933  062D                     __end_of___lwmod:	
  1934                           
  1935                           	psect	text6
  1936  057F                     __ptext6:	
  1937 ;; *************** function ___lwdiv *****************
  1938 ;; Defined at:
  1939 ;;		line 6 in file "D:\Program Files (x86)\Microchip\xc8\v1.33\sources\common\lwdiv.c"
  1940 ;; Parameters:    Size  Location     Type
  1941 ;;  divisor         2    0[BANK0 ] unsigned int 
  1942 ;;  dividend        2    2[BANK0 ] unsigned int 
  1943 ;; Auto vars:     Size  Location     Type
  1944 ;;  quotient        2    5[BANK0 ] unsigned int 
  1945 ;;  counter         1    4[BANK0 ] unsigned char 
  1946 ;; Return value:  Size  Location     Type
  1947 ;;                  2    0[BANK0 ] unsigned int 
  1948 ;; Registers used:
  1949 ;;		wreg, status,2, status,0
  1950 ;; Tracked objects:
  1951 ;;		On entry : 0/0
  1952 ;;		On exit  : 0/0
  1953 ;;		Unchanged: 0/0
  1954 ;; Data sizes:     COMMON   BANK0   BANK1   BANK2
  1955 ;;      Params:         0       4       0       0
  1956 ;;      Locals:         0       3       0       0
  1957 ;;      Temps:          1       0       0       0
  1958 ;;      Totals:         1       7       0       0
  1959 ;;Total ram usage:        8 bytes
  1960 ;; Hardware stack levels used:    1
  1961 ;; Hardware stack levels required when called:    2
  1962 ;; This function calls:
  1963 ;;		Nothing
  1964 ;; This function is called by:
  1965 ;;		_printf
  1966 ;; This function uses a non-reentrant model
  1967 ;;
  1968                           
  1969                           
  1970                           ;psect for function ___lwdiv
  1971  057F                     ___lwdiv:	
  1972                           
  1973                           ;incstack = 0
  1974                           ; Regs used in ___lwdiv: [wreg+status,2+status,0]
  1975  057F  1283               	bcf	3,5	;RP0=0, select bank0
  1976  0580  1303               	bcf	3,6	;RP1=0, select bank0
  1977  0581  01A5               	clrf	___lwdiv@quotient
  1978  0582  01A6               	clrf	___lwdiv@quotient+1
  1979  0583  0821               	movf	___lwdiv@divisor+1,w
  1980  0584  0420               	iorwf	___lwdiv@divisor,w
  1981  0585  1903               	skipnz
  1982  0586  2DB8               	goto	l2399
  1983  0587  01A4               	clrf	___lwdiv@counter
  1984  0588  0AA4               	incf	___lwdiv@counter,f
  1985  0589                     l2387:	
  1986  0589  1BA1               	btfsc	___lwdiv@divisor+1,7
  1987  058A  2D97               	goto	l2389
  1988  058B  3001               	movlw	1
  1989  058C                     u2395:	
  1990  058C  1003               	clrc
  1991  058D  0DA0               	rlf	___lwdiv@divisor,f
  1992  058E  0DA1               	rlf	___lwdiv@divisor+1,f
  1993  058F  3EFF               	addlw	-1
  1994  0590  1D03               	skipz
  1995  0591  2D8C               	goto	u2395
  1996  0592  3001               	movlw	1
  1997  0593  00F5               	movwf	??___lwdiv
  1998  0594  0875               	movf	??___lwdiv,w
  1999  0595  07A4               	addwf	___lwdiv@counter,f
  2000  0596  2D89               	goto	l2387
  2001  0597                     l2389:	
  2002  0597  3001               	movlw	1
  2003  0598                     u2415:	
  2004  0598  1003               	clrc
  2005  0599  0DA5               	rlf	___lwdiv@quotient,f
  2006  059A  0DA6               	rlf	___lwdiv@quotient+1,f
  2007  059B  3EFF               	addlw	-1
  2008  059C  1D03               	skipz
  2009  059D  2D98               	goto	u2415
  2010  059E  0821               	movf	___lwdiv@divisor+1,w
  2011  059F  0223               	subwf	___lwdiv@dividend+1,w
  2012  05A0  1D03               	skipz
  2013  05A1  2DA4               	goto	u2425
  2014  05A2  0820               	movf	___lwdiv@divisor,w
  2015  05A3  0222               	subwf	___lwdiv@dividend,w
  2016  05A4                     u2425:	
  2017  05A4  1C03               	skipc
  2018  05A5  2DAD               	goto	l2395
  2019  05A6  0820               	movf	___lwdiv@divisor,w
  2020  05A7  02A2               	subwf	___lwdiv@dividend,f
  2021  05A8  0821               	movf	___lwdiv@divisor+1,w
  2022  05A9  1C03               	skipc
  2023  05AA  03A3               	decf	___lwdiv@dividend+1,f
  2024  05AB  02A3               	subwf	___lwdiv@dividend+1,f
  2025  05AC  1425               	bsf	___lwdiv@quotient,0
  2026  05AD                     l2395:	
  2027  05AD  3001               	movlw	1
  2028  05AE                     u2435:	
  2029  05AE  1003               	clrc
  2030  05AF  0CA1               	rrf	___lwdiv@divisor+1,f
  2031  05B0  0CA0               	rrf	___lwdiv@divisor,f
  2032  05B1  3EFF               	addlw	-1
  2033  05B2  1D03               	skipz
  2034  05B3  2DAE               	goto	u2435
  2035  05B4  3001               	movlw	1
  2036  05B5  02A4               	subwf	___lwdiv@counter,f
  2037  05B6  1D03               	btfss	3,2
  2038  05B7  2D97               	goto	l2389
  2039  05B8                     l2399:	
  2040  05B8  0826               	movf	___lwdiv@quotient+1,w
  2041  05B9  01A1               	clrf	?___lwdiv+1
  2042  05BA  07A1               	addwf	?___lwdiv+1,f
  2043  05BB  0825               	movf	___lwdiv@quotient,w
  2044  05BC  01A0               	clrf	?___lwdiv
  2045  05BD  07A0               	addwf	?___lwdiv,f
  2046  05BE  0008               	return
  2047  05BF                     __end_of___lwdiv:	
  2048                           
  2049                           	psect	text7
  2050  04E0                     __ptext7:	
  2051 ;; *************** function _compare_card *****************
  2052 ;; Defined at:
  2053 ;;		line 515 in file "main.c"
  2054 ;; Parameters:    Size  Location     Type
  2055 ;;  card            1    wreg     PTR unsigned char 
  2056 ;;		 -> main@UID(6), 
  2057 ;; Auto vars:     Size  Location     Type
  2058 ;;  card            1    2[BANK0 ] PTR unsigned char 
  2059 ;;		 -> main@UID(6), 
  2060 ;;  i               1    3[BANK0 ] unsigned char 
  2061 ;;  index           1    1[BANK0 ] unsigned char 
  2062 ;; Return value:  Size  Location     Type
  2063 ;;                  1    wreg      unsigned char 
  2064 ;; Registers used:
  2065 ;;		wreg, fsr0l, fsr0h, status,2, status,0, pclath, cstack
  2066 ;; Tracked objects:
  2067 ;;		On entry : 0/0
  2068 ;;		On exit  : 0/0
  2069 ;;		Unchanged: 0/0
  2070 ;; Data sizes:     COMMON   BANK0   BANK1   BANK2
  2071 ;;      Params:         0       0       0       0
  2072 ;;      Locals:         0       3       0       0
  2073 ;;      Temps:          0       1       0       0
  2074 ;;      Totals:         0       4       0       0
  2075 ;;Total ram usage:        4 bytes
  2076 ;; Hardware stack levels used:    1
  2077 ;; Hardware stack levels required when called:    3
  2078 ;; This function calls:
  2079 ;;		_eeprom_read
  2080 ;; This function is called by:
  2081 ;;		_main
  2082 ;; This function uses a non-reentrant model
  2083 ;;
  2084                           
  2085                           
  2086                           ;psect for function _compare_card
  2087  04E0                     _compare_card:	
  2088                           
  2089                           ;incstack = 0
  2090                           ; Regs used in _compare_card: [wreg-fsr0h+status,2+status,0+pclath+cstack]
  2091                           ;compare_card@card stored from wreg
  2092  04E0  1283               	bcf	3,5	;RP0=0, select bank0
  2093  04E1  1303               	bcf	3,6	;RP1=0, select bank0
  2094  04E2  00A2               	movwf	compare_card@card
  2095                           
  2096                           ;main.c: 518: char index = eeprom_read(0);
  2097  04E3  3000               	movlw	0
  2098  04E4  26F3               	fcall	_eeprom_read
  2099  04E5  1283               	bcf	3,5	;RP0=0, select bank0
  2100  04E6  1303               	bcf	3,6	;RP1=0, select bank0
  2101  04E7  00A0               	movwf	??_compare_card
  2102  04E8  0820               	movf	??_compare_card,w
  2103  04E9  00A1               	movwf	compare_card@index
  2104                           
  2105                           ;main.c: 519: if(index == 0x01 || index == 0xff) return 0;
  2106  04EA  0821               	movf	compare_card@index,w
  2107  04EB  3A01               	xorlw	1
  2108  04EC  1903               	skipnz
  2109  04ED  2CF2               	goto	l2503
  2110  04EE  0821               	movf	compare_card@index,w
  2111  04EF  3AFF               	xorlw	255
  2112  04F0  1D03               	skipz
  2113  04F1  2CF4               	goto	l212
  2114  04F2                     l2503:	
  2115  04F2  3000               	movlw	0
  2116  04F3  0008               	return
  2117  04F4                     l212:	
  2118                           
  2119                           ;main.c: 520: for(char i=1;i<index;i+=4)
  2120  04F4  01A3               	clrf	compare_card@i
  2121  04F5  0AA3               	incf	compare_card@i,f
  2122  04F6                     l2521:	
  2123  04F6  0821               	movf	compare_card@index,w
  2124  04F7  0223               	subwf	compare_card@i,w
  2125  04F8  1803               	btfsc	3,0
  2126  04F9  2D2E               	goto	l2523
  2127                           
  2128                           ;main.c: 521: {
  2129                           ;main.c: 522: if(*card == eeprom_read(i) &&
  2130                           ;main.c: 523: *(card+1) == eeprom_read(i+1) &&
  2131                           ;main.c: 524: *(card+2) == eeprom_read(i+2) &&
  2132                           ;main.c: 525: *(card+3) == eeprom_read(i+3))
  2133  04FA  0822               	movf	compare_card@card,w
  2134  04FB  0084               	movwf	4
  2135  04FC  0823               	movf	compare_card@i,w
  2136  04FD  26F3               	fcall	_eeprom_read
  2137  04FE  1383               	bcf	3,7	;select IRP bank0
  2138  04FF  0600               	xorwf	0,w
  2139  0500  1D03               	skipz
  2140  0501  2D27               	goto	l2519
  2141  0502  1283               	bcf	3,5	;RP0=0, select bank0
  2142  0503  1303               	bcf	3,6	;RP1=0, select bank0
  2143  0504  0A22               	incf	compare_card@card,w
  2144  0505  0084               	movwf	4
  2145  0506  0823               	movf	compare_card@i,w
  2146  0507  3E01               	addlw	1
  2147  0508  26F3               	fcall	_eeprom_read
  2148  0509  1383               	bcf	3,7	;select IRP bank0
  2149  050A  0600               	xorwf	0,w
  2150  050B  1D03               	skipz
  2151  050C  2D27               	goto	l2519
  2152  050D  1283               	bcf	3,5	;RP0=0, select bank0
  2153  050E  1303               	bcf	3,6	;RP1=0, select bank0
  2154  050F  0822               	movf	compare_card@card,w
  2155  0510  3E02               	addlw	2
  2156  0511  0084               	movwf	4
  2157  0512  0823               	movf	compare_card@i,w
  2158  0513  3E02               	addlw	2
  2159  0514  26F3               	fcall	_eeprom_read
  2160  0515  1383               	bcf	3,7	;select IRP bank0
  2161  0516  0600               	xorwf	0,w
  2162  0517  1D03               	skipz
  2163  0518  2D27               	goto	l2519
  2164  0519  1283               	bcf	3,5	;RP0=0, select bank0
  2165  051A  1303               	bcf	3,6	;RP1=0, select bank0
  2166  051B  0822               	movf	compare_card@card,w
  2167  051C  3E03               	addlw	3
  2168  051D  0084               	movwf	4
  2169  051E  0823               	movf	compare_card@i,w
  2170  051F  3E03               	addlw	3
  2171  0520  26F3               	fcall	_eeprom_read
  2172  0521  1383               	bcf	3,7	;select IRP bank0
  2173  0522  0600               	xorwf	0,w
  2174  0523  1D03               	skipz
  2175  0524  2D27               	goto	l2519
  2176                           
  2177                           ;main.c: 526: {
  2178                           ;main.c: 527: return 1;
  2179  0525  3001               	movlw	1
  2180  0526  0008               	return
  2181  0527                     l2519:	
  2182  0527  3004               	movlw	4
  2183  0528  1283               	bcf	3,5	;RP0=0, select bank0
  2184  0529  1303               	bcf	3,6	;RP1=0, select bank0
  2185  052A  00A0               	movwf	??_compare_card
  2186  052B  0820               	movf	??_compare_card,w
  2187  052C  07A3               	addwf	compare_card@i,f
  2188  052D  2CF6               	goto	l2521
  2189  052E                     l2523:	
  2190                           
  2191                           ;main.c: 528: }
  2192                           ;main.c: 529: }
  2193                           ;main.c: 530: return 0;
  2194  052E  3000               	movlw	0
  2195  052F  0008               	return
  2196  0530                     __end_of_compare_card:	
  2197                           
  2198                           	psect	text8
  2199  06F3                     __ptext8:	
  2200 ;; *************** function _eeprom_read *****************
  2201 ;; Defined at:
  2202 ;;		line 6 in file "D:\Program Files (x86)\Microchip\xc8\v1.33\sources\pic\eeread.c"
  2203 ;; Parameters:    Size  Location     Type
  2204 ;;  addr            1    wreg     unsigned char 
  2205 ;; Auto vars:     Size  Location     Type
  2206 ;;  addr            1    6[COMMON] unsigned char 
  2207 ;; Return value:  Size  Location     Type
  2208 ;;                  1    wreg      unsigned char 
  2209 ;; Registers used:
  2210 ;;		wreg, status,2, status,0
  2211 ;; Tracked objects:
  2212 ;;		On entry : 0/0
  2213 ;;		On exit  : 0/0
  2214 ;;		Unchanged: 0/0
  2215 ;; Data sizes:     COMMON   BANK0   BANK1   BANK2
  2216 ;;      Params:         0       0       0       0
  2217 ;;      Locals:         1       0       0       0
  2218 ;;      Temps:          1       0       0       0
  2219 ;;      Totals:         2       0       0       0
  2220 ;;Total ram usage:        2 bytes
  2221 ;; Hardware stack levels used:    1
  2222 ;; Hardware stack levels required when called:    2
  2223 ;; This function calls:
  2224 ;;		Nothing
  2225 ;; This function is called by:
  2226 ;;		_compare_card
  2227 ;;		_record_card
  2228 ;; This function uses a non-reentrant model
  2229 ;;
  2230                           
  2231                           
  2232                           ;psect for function _eeprom_read
  2233  06F3                     _eeprom_read:	
  2234                           
  2235                           ;incstack = 0
  2236                           ; Regs used in _eeprom_read: [wreg+status,2+status,0]
  2237                           ;eeprom_read@addr stored from wreg
  2238  06F3  00F6               	movwf	eeprom_read@addr
  2239  06F4                     l300:	
  2240  06F4  0064               	clrwdt	;# 
  2241  06F5  1683               	bsf	3,5	;RP0=1, select bank1
  2242  06F6  1303               	bcf	3,6	;RP1=0, select bank1
  2243  06F7  189C               	btfsc	28,1	;volsfr
  2244  06F8  2EF4               	goto	l300
  2245  06F9  0876               	movf	eeprom_read@addr,w
  2246  06FA  009B               	movwf	27	;volatile
  2247  06FB  303F               	movlw	63
  2248  06FC  00F5               	movwf	??_eeprom_read
  2249  06FD  0875               	movf	??_eeprom_read,w
  2250  06FE  059C               	andwf	28,f	;volsfr
  2251  06FF  141C               	bsf	28,0	;volsfr
  2252  0700  1003               	clrc
  2253  0701  181C               	btfsc	28,0	;volsfr
  2254  0702  1403               	setc
  2255  0703  3000               	movlw	0
  2256  0704  1803               	skipnc
  2257  0705  3001               	movlw	1
  2258  0706  081A               	movf	26,w	;volatile
  2259  0707  0008               	return
  2260  0708                     __end_of_eeprom_read:	
  2261                           
  2262                           	psect	text9
  2263  0662                     __ptext9:	
  2264 ;; *************** function _UART_read_byte *****************
  2265 ;; Defined at:
  2266 ;;		line 38 in file "UART.c"
  2267 ;; Parameters:    Size  Location     Type
  2268 ;;		None
  2269 ;; Auto vars:     Size  Location     Type
  2270 ;;  i               2    1[BANK0 ] int 
  2271 ;;  data            1    0[BANK0 ] unsigned char 
  2272 ;; Return value:  Size  Location     Type
  2273 ;;                  1    wreg      unsigned char 
  2274 ;; Registers used:
  2275 ;;		wreg, fsr0l, fsr0h, status,2, status,0
  2276 ;; Tracked objects:
  2277 ;;		On entry : 0/0
  2278 ;;		On exit  : 0/0
  2279 ;;		Unchanged: 0/0
  2280 ;; Data sizes:     COMMON   BANK0   BANK1   BANK2
  2281 ;;      Params:         0       0       0       0
  2282 ;;      Locals:         0       3       0       0
  2283 ;;      Temps:          1       0       0       0
  2284 ;;      Totals:         1       3       0       0
  2285 ;;Total ram usage:        4 bytes
  2286 ;; Hardware stack levels used:    1
  2287 ;; Hardware stack levels required when called:    2
  2288 ;; This function calls:
  2289 ;;		Nothing
  2290 ;; This function is called by:
  2291 ;;		_main
  2292 ;; This function uses a non-reentrant model
  2293 ;;
  2294                           
  2295                           
  2296                           ;psect for function _UART_read_byte
  2297  0662                     _UART_read_byte:	
  2298                           
  2299                           ;UART.c: 40: char data = buffer[0];
  2300                           
  2301                           ;incstack = 0
  2302                           ; Regs used in _UART_read_byte: [wreg-fsr0h+status,2+status,0]
  2303  0662  1283               	bcf	3,5	;RP0=0, select bank0
  2304  0663  1303               	bcf	3,6	;RP1=0, select bank0
  2305  0664  085E               	movf	_buffer,w
  2306  0665  00F5               	movwf	??_UART_read_byte
  2307  0666  0875               	movf	??_UART_read_byte,w
  2308  0667  00A0               	movwf	UART_read_byte@data
  2309                           
  2310                           ;UART.c: 41: count--;
  2311  0668  30FF               	movlw	255
  2312  0669  07F7               	addwf	_count,f
  2313  066A  1803               	skipnc
  2314  066B  0AF8               	incf	_count+1,f
  2315  066C  30FF               	movlw	255
  2316  066D  07F8               	addwf	_count+1,f
  2317                           
  2318                           ;UART.c: 44: for(int i=0;i<count;i++)
  2319  066E  01A1               	clrf	UART_read_byte@i
  2320  066F  01A2               	clrf	UART_read_byte@i+1
  2321  0670                     l2433:	
  2322  0670  0822               	movf	UART_read_byte@i+1,w
  2323  0671  3A80               	xorlw	128
  2324  0672  00F5               	movwf	??_UART_read_byte
  2325  0673  0878               	movf	_count+1,w
  2326  0674  3A80               	xorlw	128
  2327  0675  0275               	subwf	??_UART_read_byte,w
  2328  0676  1D03               	skipz
  2329  0677  2E7A               	goto	u2515
  2330  0678  0877               	movf	_count,w
  2331  0679  0221               	subwf	UART_read_byte@i,w
  2332  067A                     u2515:	
  2333  067A  1803               	btfsc	3,0
  2334  067B  2E91               	goto	l2435
  2335                           
  2336                           ;UART.c: 45: {
  2337                           ;UART.c: 46: buffer[i]=buffer[i+1];
  2338  067C  1283               	bcf	3,5	;RP0=0, select bank0
  2339  067D  1303               	bcf	3,6	;RP1=0, select bank0
  2340  067E  0821               	movf	UART_read_byte@i,w
  2341  067F  3E01               	addlw	1
  2342  0680  3E5E               	addlw	_buffer& (0+255)
  2343  0681  0084               	movwf	4
  2344  0682  1383               	bcf	3,7	;select IRP bank0
  2345  0683  0800               	movf	0,w
  2346  0684  00F5               	movwf	??_UART_read_byte
  2347  0685  0821               	movf	UART_read_byte@i,w
  2348  0686  3E5E               	addlw	_buffer& (0+255)
  2349  0687  0084               	movwf	4
  2350  0688  0875               	movf	??_UART_read_byte,w
  2351  0689  0080               	movwf	0
  2352  068A  3001               	movlw	1
  2353  068B  07A1               	addwf	UART_read_byte@i,f
  2354  068C  1803               	skipnc
  2355  068D  0AA2               	incf	UART_read_byte@i+1,f
  2356  068E  3000               	movlw	0
  2357  068F  07A2               	addwf	UART_read_byte@i+1,f
  2358  0690  2E70               	goto	l2433
  2359  0691                     l2435:	
  2360                           
  2361                           ;UART.c: 47: }
  2362                           ;UART.c: 48: return data;
  2363  0691  1283               	bcf	3,5	;RP0=0, select bank0
  2364  0692  1303               	bcf	3,6	;RP1=0, select bank0
  2365  0693  0820               	movf	UART_read_byte@data,w
  2366  0694  0008               	return
  2367  0695                     __end_of_UART_read_byte:	
  2368                           
  2369                           	psect	text10
  2370  072F                     __ptext10:	
  2371 ;; *************** function _UART_init *****************
  2372 ;; Defined at:
  2373 ;;		line 14 in file "UART.c"
  2374 ;; Parameters:    Size  Location     Type
  2375 ;;		None
  2376 ;; Auto vars:     Size  Location     Type
  2377 ;;		None
  2378 ;; Return value:  Size  Location     Type
  2379 ;;		None               void
  2380 ;; Registers used:
  2381 ;;		wreg
  2382 ;; Tracked objects:
  2383 ;;		On entry : 0/0
  2384 ;;		On exit  : 0/0
  2385 ;;		Unchanged: 0/0
  2386 ;; Data sizes:     COMMON   BANK0   BANK1   BANK2
  2387 ;;      Params:         0       0       0       0
  2388 ;;      Locals:         0       0       0       0
  2389 ;;      Temps:          0       0       0       0
  2390 ;;      Totals:         0       0       0       0
  2391 ;;Total ram usage:        0 bytes
  2392 ;; Hardware stack levels used:    1
  2393 ;; Hardware stack levels required when called:    2
  2394 ;; This function calls:
  2395 ;;		Nothing
  2396 ;; This function is called by:
  2397 ;;		_main
  2398 ;; This function uses a non-reentrant model
  2399 ;;
  2400                           
  2401                           
  2402                           ;psect for function _UART_init
  2403  072F                     _UART_init:	
  2404                           
  2405                           ;UART.c: 17: TRISBbits.TRISB1 = 1;
  2406                           
  2407                           ;incstack = 0
  2408                           ; Regs used in _UART_init: [wreg]
  2409  072F  1683               	bsf	3,5	;RP0=1, select bank1
  2410  0730  1303               	bcf	3,6	;RP1=0, select bank1
  2411  0731  1486               	bsf	6,1	;volatile
  2412                           
  2413                           ;UART.c: 18: TRISBbits.TRISB2 = 1;
  2414  0732  1506               	bsf	6,2	;volatile
  2415                           
  2416                           ;UART.c: 22: TXSTAbits.CSRC = 1;
  2417  0733  1798               	bsf	24,7	;volatile
  2418                           
  2419                           ;UART.c: 23: TXSTAbits.TXEN = 1;
  2420  0734  1698               	bsf	24,5	;volatile
  2421                           
  2422                           ;UART.c: 24: TXSTAbits.SYNC = 0;
  2423  0735  1218               	bcf	24,4	;volatile
  2424                           
  2425                           ;UART.c: 27: RCSTAbits.SPEN = 1;
  2426  0736  1283               	bcf	3,5	;RP0=0, select bank0
  2427  0737  1303               	bcf	3,6	;RP1=0, select bank0
  2428  0738  1798               	bsf	24,7	;volatile
  2429                           
  2430                           ;UART.c: 28: RCSTAbits.CREN = 1;
  2431  0739  1618               	bsf	24,4	;volatile
  2432                           
  2433                           ;UART.c: 31: TXSTAbits.BRGH = 0;
  2434  073A  1683               	bsf	3,5	;RP0=1, select bank1
  2435  073B  1303               	bcf	3,6	;RP1=0, select bank1
  2436  073C  1118               	bcf	24,2	;volatile
  2437                           
  2438                           ;UART.c: 32: SPBRG = 25;
  2439  073D  3019               	movlw	25
  2440  073E  0099               	movwf	25	;volatile
  2441  073F  0008               	return
  2442  0740                     __end_of_UART_init:	
  2443                           
  2444                           	psect	text11
  2445  07AF                     __ptext11:	
  2446 ;; *************** function _UART_available *****************
  2447 ;; Defined at:
  2448 ;;		line 34 in file "UART.c"
  2449 ;; Parameters:    Size  Location     Type
  2450 ;;		None
  2451 ;; Auto vars:     Size  Location     Type
  2452 ;;		None
  2453 ;; Return value:  Size  Location     Type
  2454 ;;                  2    5[COMMON] int 
  2455 ;; Registers used:
  2456 ;;		wreg, status,2, status,0
  2457 ;; Tracked objects:
  2458 ;;		On entry : 0/0
  2459 ;;		On exit  : 0/0
  2460 ;;		Unchanged: 0/0
  2461 ;; Data sizes:     COMMON   BANK0   BANK1   BANK2
  2462 ;;      Params:         2       0       0       0
  2463 ;;      Locals:         0       0       0       0
  2464 ;;      Temps:          0       0       0       0
  2465 ;;      Totals:         2       0       0       0
  2466 ;;Total ram usage:        2 bytes
  2467 ;; Hardware stack levels used:    1
  2468 ;; Hardware stack levels required when called:    2
  2469 ;; This function calls:
  2470 ;;		Nothing
  2471 ;; This function is called by:
  2472 ;;		_main
  2473 ;; This function uses a non-reentrant model
  2474 ;;
  2475                           
  2476                           
  2477                           ;psect for function _UART_available
  2478  07AF                     _UART_available:	
  2479                           
  2480                           ;UART.c: 36: return count;
  2481                           
  2482                           ;incstack = 0
  2483                           ; Regs used in _UART_available: [wreg+status,2+status,0]
  2484  07AF  0878               	movf	_count+1,w
  2485  07B0  01F6               	clrf	?_UART_available+1
  2486  07B1  07F6               	addwf	?_UART_available+1,f
  2487  07B2  0877               	movf	_count,w
  2488  07B3  01F5               	clrf	?_UART_available
  2489  07B4  07F5               	addwf	?_UART_available,f
  2490  07B5  0008               	return
  2491  07B6                     __end_of_UART_available:	
  2492                           
  2493                           	psect	text12
  2494  06BD                     __ptext12:	
  2495 ;; *************** function _SPI_init *****************
  2496 ;; Defined at:
  2497 ;;		line 32 in file "SPI.c"
  2498 ;; Parameters:    Size  Location     Type
  2499 ;;  mode            1    wreg     unsigned char 
  2500 ;; Auto vars:     Size  Location     Type
  2501 ;;  mode            1    6[COMMON] unsigned char 
  2502 ;; Return value:  Size  Location     Type
  2503 ;;		None               void
  2504 ;; Registers used:
  2505 ;;		wreg, status,2, status,0
  2506 ;; Tracked objects:
  2507 ;;		On entry : 0/0
  2508 ;;		On exit  : 0/0
  2509 ;;		Unchanged: 0/0
  2510 ;; Data sizes:     COMMON   BANK0   BANK1   BANK2
  2511 ;;      Params:         0       0       0       0
  2512 ;;      Locals:         1       0       0       0
  2513 ;;      Temps:          1       0       0       0
  2514 ;;      Totals:         2       0       0       0
  2515 ;;Total ram usage:        2 bytes
  2516 ;; Hardware stack levels used:    1
  2517 ;; Hardware stack levels required when called:    2
  2518 ;; This function calls:
  2519 ;;		Nothing
  2520 ;; This function is called by:
  2521 ;;		_main
  2522 ;; This function uses a non-reentrant model
  2523 ;;
  2524                           
  2525                           
  2526                           ;psect for function _SPI_init
  2527  06BD                     _SPI_init:	
  2528                           
  2529                           ;incstack = 0
  2530                           ; Regs used in _SPI_init: [wreg+status,2+status,0]
  2531                           ;SPI_init@mode stored from wreg
  2532  06BD  00F6               	movwf	SPI_init@mode
  2533                           
  2534                           ;SPI.c: 34: _mode = mode;
  2535  06BE  0876               	movf	SPI_init@mode,w
  2536  06BF  00F5               	movwf	??_SPI_init
  2537  06C0  0875               	movf	??_SPI_init,w
  2538  06C1  1283               	bcf	3,5	;RP0=0, select bank0
  2539  06C2  1303               	bcf	3,6	;RP1=0, select bank0
  2540  06C3  00EE               	movwf	__mode
  2541                           
  2542                           ;SPI.c: 35: TRISB &= ~(1<<7 | 1<<6);
  2543  06C4  303F               	movlw	63
  2544  06C5  00F5               	movwf	??_SPI_init
  2545  06C6  0875               	movf	??_SPI_init,w
  2546  06C7  1683               	bsf	3,5	;RP0=1, select bank1
  2547  06C8  1303               	bcf	3,6	;RP1=0, select bank1
  2548  06C9  0586               	andwf	6,f	;volatile
  2549                           
  2550                           ;SPI.c: 36: TRISB |= (1<<5);
  2551  06CA  1686               	bsf	6,5	;volatile
  2552                           
  2553                           ;SPI.c: 37: if(mode == 2 || mode == 3)
  2554  06CB  0876               	movf	SPI_init@mode,w
  2555  06CC  3A02               	xorlw	2
  2556  06CD  1903               	skipnz
  2557  06CE  2ED3               	goto	l67
  2558  06CF  0876               	movf	SPI_init@mode,w
  2559  06D0  3A03               	xorlw	3
  2560  06D1  1D03               	skipz
  2561  06D2  2ED7               	goto	l1789
  2562  06D3                     l67:	
  2563                           
  2564                           ;SPI.c: 38: PORTB |= (1<<7);
  2565  06D3  1283               	bcf	3,5	;RP0=0, select bank0
  2566  06D4  1303               	bcf	3,6	;RP1=0, select bank0
  2567  06D5  1786               	bsf	6,7	;volatile
  2568  06D6  0008               	return
  2569  06D7                     l1789:	
  2570                           
  2571                           ;SPI.c: 39: else
  2572                           ;SPI.c: 40: PORTB &= ~(1<<7);
  2573  06D7  307F               	movlw	127
  2574  06D8  00F5               	movwf	??_SPI_init
  2575  06D9  0875               	movf	??_SPI_init,w
  2576  06DA  1283               	bcf	3,5	;RP0=0, select bank0
  2577  06DB  0586               	andwf	6,f	;volatile
  2578  06DC  0008               	return
  2579  06DD                     __end_of_SPI_init:	
  2580                           
  2581                           	psect	text13
  2582  0751                     __ptext13:	
  2583 ;; *************** function _MFRC522_isCard *****************
  2584 ;; Defined at:
  2585 ;;		line 475 in file "main.c"
  2586 ;; Parameters:    Size  Location     Type
  2587 ;;  TagType         1    wreg     PTR unsigned char 
  2588 ;;		 -> main@TagType(1), 
  2589 ;; Auto vars:     Size  Location     Type
  2590 ;;  TagType         1   43[BANK0 ] PTR unsigned char 
  2591 ;;		 -> main@TagType(1), 
  2592 ;; Return value:  Size  Location     Type
  2593 ;;                  1    wreg      unsigned char 
  2594 ;; Registers used:
  2595 ;;		wreg, fsr0l, fsr0h, status,2, status,0, btemp+1, pclath, cstack
  2596 ;; Tracked objects:
  2597 ;;		On entry : 0/0
  2598 ;;		On exit  : 0/0
  2599 ;;		Unchanged: 0/0
  2600 ;; Data sizes:     COMMON   BANK0   BANK1   BANK2
  2601 ;;      Params:         0       0       0       0
  2602 ;;      Locals:         0       1       0       0
  2603 ;;      Temps:          0       1       0       0
  2604 ;;      Totals:         0       2       0       0
  2605 ;;Total ram usage:        2 bytes
  2606 ;; Hardware stack levels used:    1
  2607 ;; Hardware stack levels required when called:    7
  2608 ;; This function calls:
  2609 ;;		_MFRC522_Request
  2610 ;; This function is called by:
  2611 ;;		_main
  2612 ;; This function uses a non-reentrant model
  2613 ;;
  2614                           
  2615                           
  2616                           ;psect for function _MFRC522_isCard
  2617  0751                     _MFRC522_isCard:	
  2618                           
  2619                           ;incstack = 0
  2620                           ; Regs used in _MFRC522_isCard: [wreg-fsr0h+status,2+status,0+btemp+1+pclath+cstack]
  2621                           ;MFRC522_isCard@TagType stored from wreg
  2622  0751  1283               	bcf	3,5	;RP0=0, select bank0
  2623  0752  1303               	bcf	3,6	;RP1=0, select bank0
  2624  0753  00CB               	movwf	MFRC522_isCard@TagType
  2625                           
  2626                           ;main.c: 477: if (MFRC522_Request( 0x26, TagType ) == 0)
  2627  0754  084B               	movf	MFRC522_isCard@TagType,w
  2628  0755  00CA               	movwf	??_MFRC522_isCard
  2629  0756  084A               	movf	??_MFRC522_isCard,w
  2630  0757  00C1               	movwf	MFRC522_Request@TagType
  2631  0758  3026               	movlw	38
  2632  0759  262D               	fcall	_MFRC522_Request
  2633  075A  3800               	iorlw	0
  2634  075B  1D03               	skipz
  2635  075C  2F5F               	goto	l2477
  2636                           
  2637                           ;main.c: 478: return 1;
  2638  075D  3001               	movlw	1
  2639  075E  0008               	return
  2640  075F                     l2477:	
  2641                           
  2642                           ;main.c: 479: else
  2643                           ;main.c: 480: return 0;
  2644  075F  3000               	movlw	0
  2645  0760  0008               	return
  2646  0761                     __end_of_MFRC522_isCard:	
  2647                           
  2648                           	psect	text14
  2649  062D                     __ptext14:	
  2650 ;; *************** function _MFRC522_Request *****************
  2651 ;; Defined at:
  2652 ;;		line 285 in file "main.c"
  2653 ;; Parameters:    Size  Location     Type
  2654 ;;  reqMode         1    wreg     unsigned char 
  2655 ;;  TagType         1   33[BANK0 ] PTR unsigned char 
  2656 ;;		 -> main@TagType(1), 
  2657 ;; Auto vars:     Size  Location     Type
  2658 ;;  reqMode         1   38[BANK0 ] unsigned char 
  2659 ;;  backBits        2   40[BANK0 ] unsigned int 
  2660 ;;  _status         1   39[BANK0 ] unsigned char 
  2661 ;; Return value:  Size  Location     Type
  2662 ;;                  1    wreg      unsigned char 
  2663 ;; Registers used:
  2664 ;;		wreg, fsr0l, fsr0h, status,2, status,0, btemp+1, pclath, cstack
  2665 ;; Tracked objects:
  2666 ;;		On entry : 0/0
  2667 ;;		On exit  : 0/0
  2668 ;;		Unchanged: 0/0
  2669 ;; Data sizes:     COMMON   BANK0   BANK1   BANK2
  2670 ;;      Params:         0       1       0       0
  2671 ;;      Locals:         0       4       0       0
  2672 ;;      Temps:          0       4       0       0
  2673 ;;      Totals:         0       9       0       0
  2674 ;;Total ram usage:        9 bytes
  2675 ;; Hardware stack levels used:    1
  2676 ;; Hardware stack levels required when called:    6
  2677 ;; This function calls:
  2678 ;;		_MFRC522_ToCard
  2679 ;;		_MFRC522_Wr
  2680 ;; This function is called by:
  2681 ;;		_MFRC522_isCard
  2682 ;; This function uses a non-reentrant model
  2683 ;;
  2684                           
  2685                           
  2686                           ;psect for function _MFRC522_Request
  2687  062D                     _MFRC522_Request:	
  2688                           
  2689                           ;incstack = 0
  2690                           ; Regs used in _MFRC522_Request: [wreg-fsr0h+status,2+status,0+btemp+1+pclath+cstack]
  2691                           ;MFRC522_Request@reqMode stored from wreg
  2692  062D  1283               	bcf	3,5	;RP0=0, select bank0
  2693  062E  1303               	bcf	3,6	;RP1=0, select bank0
  2694  062F  00C6               	movwf	MFRC522_Request@reqMode
  2695                           
  2696                           ;main.c: 287: char _status;
  2697                           ;main.c: 288: unsigned backBits;
  2698                           ;main.c: 289: MFRC522_Wr( 0x0D, 0x07 );
  2699  0630  3007               	movlw	7
  2700  0631  00C2               	movwf	??_MFRC522_Request
  2701  0632  0842               	movf	??_MFRC522_Request,w
  2702  0633  00A8               	movwf	MFRC522_Wr@value
  2703  0634  300D               	movlw	13
  2704  0635  2740               	fcall	_MFRC522_Wr
  2705                           
  2706                           ;main.c: 290: TagType[0] = reqMode;
  2707  0636  1283               	bcf	3,5	;RP0=0, select bank0
  2708  0637  1303               	bcf	3,6	;RP1=0, select bank0
  2709  0638  0846               	movf	MFRC522_Request@reqMode,w
  2710  0639  00C2               	movwf	??_MFRC522_Request
  2711  063A  0841               	movf	MFRC522_Request@TagType,w
  2712  063B  0084               	movwf	4
  2713  063C  0842               	movf	??_MFRC522_Request,w
  2714  063D  1383               	bcf	3,7	;select IRP bank0
  2715  063E  0080               	movwf	0
  2716                           
  2717                           ;main.c: 291: _status = MFRC522_ToCard( 0x0C, TagType, 1, TagType, &backBits );
  2718  063F  0841               	movf	MFRC522_Request@TagType,w
  2719  0640  00C2               	movwf	??_MFRC522_Request
  2720  0641  0842               	movf	??_MFRC522_Request,w
  2721  0642  00AF               	movwf	MFRC522_ToCard@sendData
  2722  0643  01B0               	clrf	MFRC522_ToCard@sendLen
  2723  0644  0AB0               	incf	MFRC522_ToCard@sendLen,f
  2724  0645  0841               	movf	MFRC522_Request@TagType,w
  2725  0646  00C3               	movwf	??_MFRC522_Request+1
  2726  0647  0843               	movf	??_MFRC522_Request+1,w
  2727  0648  00B1               	movwf	MFRC522_ToCard@backData
  2728  0649  3048               	movlw	MFRC522_Request@backBits& (0+255)
  2729  064A  00C4               	movwf	??_MFRC522_Request+2
  2730  064B  0844               	movf	??_MFRC522_Request+2,w
  2731  064C  00B2               	movwf	MFRC522_ToCard@backLen
  2732  064D  300C               	movlw	12
  2733  064E  201A               	fcall	_MFRC522_ToCard
  2734  064F  1283               	bcf	3,5	;RP0=0, select bank0
  2735  0650  1303               	bcf	3,6	;RP1=0, select bank0
  2736  0651  00C5               	movwf	??_MFRC522_Request+3
  2737  0652  0845               	movf	??_MFRC522_Request+3,w
  2738  0653  00C7               	movwf	MFRC522_Request@_status
  2739                           
  2740                           ;main.c: 292: if ( (_status != 0) || (backBits != 0x10) )
  2741  0654  08C7               	movf	MFRC522_Request@_status,f
  2742  0655  1D03               	skipz
  2743  0656  2E5C               	goto	l2321
  2744  0657  3010               	movlw	16
  2745  0658  0648               	xorwf	MFRC522_Request@backBits,w
  2746  0659  0449               	iorwf	MFRC522_Request@backBits+1,w
  2747  065A  1903               	skipnz
  2748  065B  2E60               	goto	l141
  2749  065C                     l2321:	
  2750                           
  2751                           ;main.c: 293: {
  2752                           ;main.c: 294: _status = 2;
  2753  065C  3002               	movlw	2
  2754  065D  00C2               	movwf	??_MFRC522_Request
  2755  065E  0842               	movf	??_MFRC522_Request,w
  2756  065F  00C7               	movwf	MFRC522_Request@_status
  2757  0660                     l141:	
  2758                           
  2759                           ;main.c: 295: }
  2760                           ;main.c: 296: return _status;
  2761  0660  0847               	movf	MFRC522_Request@_status,w
  2762  0661  0008               	return
  2763  0662                     __end_of_MFRC522_Request:	
  2764                           
  2765                           	psect	text15
  2766  06DD                     __ptext15:	
  2767 ;; *************** function _MFRC522_ReadCardSerial *****************
  2768 ;; Defined at:
  2769 ;;		line 482 in file "main.c"
  2770 ;; Parameters:    Size  Location     Type
  2771 ;;  str             1    wreg     PTR unsigned char 
  2772 ;;		 -> main@UID(6), 
  2773 ;; Auto vars:     Size  Location     Type
  2774 ;;  str             1   46[BANK0 ] PTR unsigned char 
  2775 ;;		 -> main@UID(6), 
  2776 ;;  _status         1   45[BANK0 ] unsigned char 
  2777 ;; Return value:  Size  Location     Type
  2778 ;;                  1    wreg      unsigned char 
  2779 ;; Registers used:
  2780 ;;		wreg, fsr0l, fsr0h, status,2, status,0, btemp+1, pclath, cstack
  2781 ;; Tracked objects:
  2782 ;;		On entry : 0/0
  2783 ;;		On exit  : 0/0
  2784 ;;		Unchanged: 0/0
  2785 ;; Data sizes:     COMMON   BANK0   BANK1   BANK2
  2786 ;;      Params:         0       0       0       0
  2787 ;;      Locals:         0       2       0       0
  2788 ;;      Temps:          0       1       0       0
  2789 ;;      Totals:         0       3       0       0
  2790 ;;Total ram usage:        3 bytes
  2791 ;; Hardware stack levels used:    1
  2792 ;; Hardware stack levels required when called:    7
  2793 ;; This function calls:
  2794 ;;		_MFRC522_AntiColl
  2795 ;; This function is called by:
  2796 ;;		_main
  2797 ;; This function uses a non-reentrant model
  2798 ;;
  2799                           
  2800                           
  2801                           ;psect for function _MFRC522_ReadCardSerial
  2802  06DD                     _MFRC522_ReadCardSerial:	
  2803                           
  2804                           ;incstack = 0
  2805                           ; Regs used in _MFRC522_ReadCardSerial: [wreg-fsr0h+status,2+status,0+btemp+1+pclath+cst
      +                          ack]
  2806                           ;MFRC522_ReadCardSerial@str stored from wreg
  2807  06DD  1283               	bcf	3,5	;RP0=0, select bank0
  2808  06DE  1303               	bcf	3,6	;RP1=0, select bank0
  2809  06DF  00CE               	movwf	MFRC522_ReadCardSerial@str
  2810                           
  2811                           ;main.c: 484: char _status;
  2812                           ;main.c: 485: _status = MFRC522_AntiColl( str );
  2813  06E0  084E               	movf	MFRC522_ReadCardSerial@str,w
  2814  06E1  2483               	fcall	_MFRC522_AntiColl
  2815  06E2  1283               	bcf	3,5	;RP0=0, select bank0
  2816  06E3  1303               	bcf	3,6	;RP1=0, select bank0
  2817  06E4  00CC               	movwf	??_MFRC522_ReadCardSerial
  2818  06E5  084C               	movf	??_MFRC522_ReadCardSerial,w
  2819  06E6  00CD               	movwf	MFRC522_ReadCardSerial@_status
  2820                           
  2821                           ;main.c: 486: str[5] = 0;
  2822  06E7  084E               	movf	MFRC522_ReadCardSerial@str,w
  2823  06E8  3E05               	addlw	5
  2824  06E9  0084               	movwf	4
  2825  06EA  1383               	bcf	3,7	;select IRP bank0
  2826  06EB  0180               	clrf	0
  2827                           
  2828                           ;main.c: 487: if (_status == 0)
  2829  06EC  08CD               	movf	MFRC522_ReadCardSerial@_status,f
  2830  06ED  1D03               	skipz
  2831  06EE  2EF1               	goto	l2493
  2832                           
  2833                           ;main.c: 488: return 1;
  2834  06EF  3001               	movlw	1
  2835  06F0  0008               	return
  2836  06F1                     l2493:	
  2837                           
  2838                           ;main.c: 489: else
  2839                           ;main.c: 490: return 0;
  2840  06F1  3000               	movlw	0
  2841  06F2  0008               	return
  2842  06F3                     __end_of_MFRC522_ReadCardSerial:	
  2843                           
  2844                           	psect	text16
  2845  0483                     __ptext16:	
  2846 ;; *************** function _MFRC522_AntiColl *****************
  2847 ;; Defined at:
  2848 ;;		line 445 in file "main.c"
  2849 ;; Parameters:    Size  Location     Type
  2850 ;;  serNum          1    wreg     PTR unsigned char 
  2851 ;;		 -> main@UID(6), 
  2852 ;; Auto vars:     Size  Location     Type
  2853 ;;  serNum          1   43[BANK0 ] PTR unsigned char 
  2854 ;;		 -> main@UID(6), 
  2855 ;;  unLen           2   39[BANK0 ] unsigned int 
  2856 ;;  i               1   42[BANK0 ] unsigned char 
  2857 ;;  _status         1   41[BANK0 ] unsigned char 
  2858 ;;  serNumCheck     1   38[BANK0 ] unsigned char 
  2859 ;; Return value:  Size  Location     Type
  2860 ;;                  1    wreg      unsigned char 
  2861 ;; Registers used:
  2862 ;;		wreg, fsr0l, fsr0h, status,2, status,0, btemp+1, pclath, cstack
  2863 ;; Tracked objects:
  2864 ;;		On entry : 0/0
  2865 ;;		On exit  : 0/0
  2866 ;;		Unchanged: 0/0
  2867 ;; Data sizes:     COMMON   BANK0   BANK1   BANK2
  2868 ;;      Params:         0       0       0       0
  2869 ;;      Locals:         0       6       0       0
  2870 ;;      Temps:          0       5       0       0
  2871 ;;      Totals:         0      11       0       0
  2872 ;;Total ram usage:       11 bytes
  2873 ;; Hardware stack levels used:    1
  2874 ;; Hardware stack levels required when called:    6
  2875 ;; This function calls:
  2876 ;;		_MFRC522_Clear_Bit
  2877 ;;		_MFRC522_ToCard
  2878 ;;		_MFRC522_Wr
  2879 ;; This function is called by:
  2880 ;;		_MFRC522_ReadCardSerial
  2881 ;; This function uses a non-reentrant model
  2882 ;;
  2883                           
  2884                           
  2885                           ;psect for function _MFRC522_AntiColl
  2886  0483                     _MFRC522_AntiColl:	
  2887                           
  2888                           ;incstack = 0
  2889                           ; Regs used in _MFRC522_AntiColl: [wreg-fsr0h+status,2+status,0+btemp+1+pclath+cstack]
  2890                           ;MFRC522_AntiColl@serNum stored from wreg
  2891  0483  1283               	bcf	3,5	;RP0=0, select bank0
  2892  0484  1303               	bcf	3,6	;RP1=0, select bank0
  2893  0485  00CB               	movwf	MFRC522_AntiColl@serNum
  2894                           
  2895                           ;main.c: 447: char _status;
  2896                           ;main.c: 448: char i;
  2897                           ;main.c: 449: char serNumCheck = 0;
  2898  0486  01C6               	clrf	MFRC522_AntiColl@serNumCheck
  2899                           
  2900                           ;main.c: 450: unsigned unLen;
  2901                           ;main.c: 451: MFRC522_Wr( 0x0D, 0x00 );
  2902  0487  01A8               	clrf	MFRC522_Wr@value
  2903  0488  300D               	movlw	13
  2904  0489  2740               	fcall	_MFRC522_Wr
  2905                           
  2906                           ;main.c: 452: serNum[0] = 0x93;
  2907  048A  3093               	movlw	147
  2908  048B  1283               	bcf	3,5	;RP0=0, select bank0
  2909  048C  1303               	bcf	3,6	;RP1=0, select bank0
  2910  048D  00C1               	movwf	??_MFRC522_AntiColl
  2911  048E  084B               	movf	MFRC522_AntiColl@serNum,w
  2912  048F  0084               	movwf	4
  2913  0490  0841               	movf	??_MFRC522_AntiColl,w
  2914  0491  1383               	bcf	3,7	;select IRP bank0
  2915  0492  0080               	movwf	0
  2916                           
  2917                           ;main.c: 453: serNum[1] = 0x20;
  2918  0493  3020               	movlw	32
  2919  0494  00C1               	movwf	??_MFRC522_AntiColl
  2920  0495  0A4B               	incf	MFRC522_AntiColl@serNum,w
  2921  0496  0084               	movwf	4
  2922  0497  0841               	movf	??_MFRC522_AntiColl,w
  2923  0498  0080               	movwf	0
  2924                           
  2925                           ;main.c: 454: MFRC522_Clear_Bit( 0x08, 0x08 );
  2926  0499  3008               	movlw	8
  2927  049A  00C1               	movwf	??_MFRC522_AntiColl
  2928  049B  0841               	movf	??_MFRC522_AntiColl,w
  2929  049C  00AB               	movwf	MFRC522_Clear_Bit@mask
  2930  049D  3008               	movlw	8
  2931  049E  2761               	fcall	_MFRC522_Clear_Bit
  2932                           
  2933                           ;main.c: 455: _status = MFRC522_ToCard( 0x0C, serNum, 2, serNum, &unLen );
  2934  049F  1283               	bcf	3,5	;RP0=0, select bank0
  2935  04A0  1303               	bcf	3,6	;RP1=0, select bank0
  2936  04A1  084B               	movf	MFRC522_AntiColl@serNum,w
  2937  04A2  00C1               	movwf	??_MFRC522_AntiColl
  2938  04A3  0841               	movf	??_MFRC522_AntiColl,w
  2939  04A4  00AF               	movwf	MFRC522_ToCard@sendData
  2940  04A5  3002               	movlw	2
  2941  04A6  00C2               	movwf	??_MFRC522_AntiColl+1
  2942  04A7  0842               	movf	??_MFRC522_AntiColl+1,w
  2943  04A8  00B0               	movwf	MFRC522_ToCard@sendLen
  2944  04A9  084B               	movf	MFRC522_AntiColl@serNum,w
  2945  04AA  00C3               	movwf	??_MFRC522_AntiColl+2
  2946  04AB  0843               	movf	??_MFRC522_AntiColl+2,w
  2947  04AC  00B1               	movwf	MFRC522_ToCard@backData
  2948  04AD  3047               	movlw	MFRC522_AntiColl@unLen& (0+255)
  2949  04AE  00C4               	movwf	??_MFRC522_AntiColl+3
  2950  04AF  0844               	movf	??_MFRC522_AntiColl+3,w
  2951  04B0  00B2               	movwf	MFRC522_ToCard@backLen
  2952  04B1  300C               	movlw	12
  2953  04B2  201A               	fcall	_MFRC522_ToCard
  2954  04B3  1283               	bcf	3,5	;RP0=0, select bank0
  2955  04B4  1303               	bcf	3,6	;RP1=0, select bank0
  2956  04B5  00C5               	movwf	??_MFRC522_AntiColl+4
  2957  04B6  0845               	movf	??_MFRC522_AntiColl+4,w
  2958  04B7  00C9               	movwf	MFRC522_AntiColl@_status
  2959                           
  2960                           ;main.c: 456: if (_status == 0)
  2961  04B8  08C9               	movf	MFRC522_AntiColl@_status,f
  2962  04B9  1D03               	skipz
  2963  04BA  2CDE               	goto	l195
  2964                           
  2965                           ;main.c: 457: {
  2966                           ;main.c: 458: for ( i=0; i < 4; i++ )
  2967  04BB  01CA               	clrf	MFRC522_AntiColl@i
  2968  04BC  3004               	movlw	4
  2969  04BD  024A               	subwf	MFRC522_AntiColl@i,w
  2970  04BE  1803               	btfsc	3,0
  2971  04BF  2CD2               	goto	l2351
  2972  04C0                     l2345:	
  2973                           
  2974                           ;main.c: 459: {
  2975                           ;main.c: 460: serNumCheck ^= serNum[i];
  2976  04C0  084A               	movf	MFRC522_AntiColl@i,w
  2977  04C1  074B               	addwf	MFRC522_AntiColl@serNum,w
  2978  04C2  00C1               	movwf	??_MFRC522_AntiColl
  2979  04C3  0841               	movf	??_MFRC522_AntiColl,w
  2980  04C4  0084               	movwf	4
  2981  04C5  1383               	bcf	3,7	;select IRP bank0
  2982  04C6  0800               	movf	0,w
  2983  04C7  00C2               	movwf	??_MFRC522_AntiColl+1
  2984  04C8  0842               	movf	??_MFRC522_AntiColl+1,w
  2985  04C9  06C6               	xorwf	MFRC522_AntiColl@serNumCheck,f
  2986  04CA  3001               	movlw	1
  2987  04CB  00C1               	movwf	??_MFRC522_AntiColl
  2988  04CC  0841               	movf	??_MFRC522_AntiColl,w
  2989  04CD  07CA               	addwf	MFRC522_AntiColl@i,f
  2990  04CE  3004               	movlw	4
  2991  04CF  024A               	subwf	MFRC522_AntiColl@i,w
  2992  04D0  1C03               	skipc
  2993  04D1  2CC0               	goto	l2345
  2994  04D2                     l2351:	
  2995                           
  2996                           ;main.c: 461: }
  2997                           ;main.c: 463: if ( serNumCheck != serNum[4] )
  2998  04D2  084B               	movf	MFRC522_AntiColl@serNum,w
  2999  04D3  3E04               	addlw	4
  3000  04D4  0084               	movwf	4
  3001  04D5  1383               	bcf	3,7	;select IRP bank0
  3002  04D6  0800               	movf	0,w
  3003  04D7  0646               	xorwf	MFRC522_AntiColl@serNumCheck,w
  3004  04D8  1903               	skipnz
  3005  04D9  2CDE               	goto	l195
  3006                           
  3007                           ;main.c: 464: {
  3008                           ;main.c: 465: _status = 2;
  3009  04DA  3002               	movlw	2
  3010  04DB  00C1               	movwf	??_MFRC522_AntiColl
  3011  04DC  0841               	movf	??_MFRC522_AntiColl,w
  3012  04DD  00C9               	movwf	MFRC522_AntiColl@_status
  3013  04DE                     l195:	
  3014                           
  3015                           ;main.c: 466: }
  3016                           ;main.c: 467: }
  3017                           ;main.c: 468: return _status;
  3018  04DE  0849               	movf	MFRC522_AntiColl@_status,w
  3019  04DF  0008               	return
  3020  04E0                     __end_of_MFRC522_AntiColl:	
  3021                           
  3022                           	psect	text17
  3023  001A                     __ptext17:	
  3024 ;; *************** function _MFRC522_ToCard *****************
  3025 ;; Defined at:
  3026 ;;		line 182 in file "main.c"
  3027 ;; Parameters:    Size  Location     Type
  3028 ;;  command         1    wreg     unsigned char 
  3029 ;;  sendData        1   15[BANK0 ] PTR unsigned char 
  3030 ;;		 -> main@TagType(1), main@UID(6), MFRC522_Write@buff(18), MFRC522_Auth@buff(12), 
  3031 ;;		 -> MFRC522_Halt@buff(4), MFRC522_SelectTag@buffer(9), 
  3032 ;;  sendLen         1   16[BANK0 ] unsigned char 
  3033 ;;  backData        1   17[BANK0 ] PTR unsigned char 
  3034 ;;		 -> main@TagType(1), main@UID(6), MFRC522_Write@buff(18), MFRC522_Auth@buff(12), 
  3035 ;;		 -> MFRC522_Halt@buff(4), MFRC522_SelectTag@buffer(9), 
  3036 ;;  backLen         1   18[BANK0 ] PTR unsigned int 
  3037 ;;		 -> MFRC522_AntiColl@unLen(2), MFRC522_Read@unLen(2), MFRC522_Write@recvBits(2), MFRC522_Auth@recvBits(2), 
  3038 ;;		 -> MFRC522_Halt@unLen(2), MFRC522_SelectTag@recvBits(2), MFRC522_Request@backBits(2), 
  3039 ;; Auto vars:     Size  Location     Type
  3040 ;;  command         1   29[BANK0 ] unsigned char 
  3041 ;;  i               2   30[BANK0 ] unsigned int 
  3042 ;;  n               1   32[BANK0 ] unsigned char 
  3043 ;;  irqEn           1   28[BANK0 ] unsigned char 
  3044 ;;  lastBits        1   27[BANK0 ] unsigned char 
  3045 ;;  _status         1   26[BANK0 ] unsigned char 
  3046 ;;  waitIRq         1   25[BANK0 ] unsigned char 
  3047 ;; Return value:  Size  Location     Type
  3048 ;;                  1    wreg      unsigned char 
  3049 ;; Registers used:
  3050 ;;		wreg, fsr0l, fsr0h, status,2, status,0, btemp+1, pclath, cstack
  3051 ;; Tracked objects:
  3052 ;;		On entry : 0/0
  3053 ;;		On exit  : 0/0
  3054 ;;		Unchanged: 0/0
  3055 ;; Data sizes:     COMMON   BANK0   BANK1   BANK2
  3056 ;;      Params:         0       4       0       0
  3057 ;;      Locals:         0       8       0       0
  3058 ;;      Temps:          0       6       0       0
  3059 ;;      Totals:         0      18       0       0
  3060 ;;Total ram usage:       18 bytes
  3061 ;; Hardware stack levels used:    1
  3062 ;; Hardware stack levels required when called:    5
  3063 ;; This function calls:
  3064 ;;		_MFRC522_Clear_Bit
  3065 ;;		_MFRC522_Rd
  3066 ;;		_MFRC522_Set_Bit
  3067 ;;		_MFRC522_Wr
  3068 ;; This function is called by:
  3069 ;;		_MFRC522_Request
  3070 ;;		_MFRC522_AntiColl
  3071 ;;		_MFRC522_SelectTag
  3072 ;;		_MFRC522_Halt
  3073 ;;		_MFRC522_Auth
  3074 ;;		_MFRC522_Write
  3075 ;;		_MFRC522_Read
  3076 ;; This function uses a non-reentrant model
  3077 ;;
  3078                           
  3079                           
  3080                           ;psect for function _MFRC522_ToCard
  3081  001A                     _MFRC522_ToCard:	
  3082                           
  3083                           ;incstack = 0
  3084                           ; Regs used in _MFRC522_ToCard: [wreg-fsr0h+status,2+status,0+btemp+1+pclath+cstack]
  3085                           ;MFRC522_ToCard@command stored from wreg
  3086  001A  1283               	bcf	3,5	;RP0=0, select bank0
  3087  001B  1303               	bcf	3,6	;RP1=0, select bank0
  3088  001C  00BD               	movwf	MFRC522_ToCard@command
  3089                           
  3090                           ;main.c: 184: char _status = 2;
  3091  001D  3002               	movlw	2
  3092  001E  00B3               	movwf	??_MFRC522_ToCard
  3093  001F  0833               	movf	??_MFRC522_ToCard,w
  3094  0020  00BA               	movwf	MFRC522_ToCard@_status
  3095                           
  3096                           ;main.c: 185: char irqEn = 0x00;
  3097  0021  01BC               	clrf	MFRC522_ToCard@irqEn
  3098                           
  3099                           ;main.c: 186: char waitIRq = 0x00;
  3100  0022  01B9               	clrf	MFRC522_ToCard@waitIRq
  3101                           
  3102                           ;main.c: 187: char lastBits;
  3103                           ;main.c: 188: char n;
  3104                           ;main.c: 189: unsigned i;
  3105                           ;main.c: 191: switch (command)
  3106  0023  2833               	goto	l2237
  3107  0024                     l2231:	
  3108                           ;main.c: 192: {
  3109                           ;main.c: 193: case 0x0E:
  3110                           
  3111                           
  3112                           ;main.c: 194: {
  3113                           ;main.c: 195: irqEn = 0x12;
  3114  0024  3012               	movlw	18
  3115  0025  00B3               	movwf	??_MFRC522_ToCard
  3116  0026  0833               	movf	??_MFRC522_ToCard,w
  3117  0027  00BC               	movwf	MFRC522_ToCard@irqEn
  3118                           
  3119                           ;main.c: 196: waitIRq = 0x10;
  3120  0028  3010               	movlw	16
  3121  0029  282F               	goto	L5
  3122  002A                     l2233:	
  3123                           ;main.c: 198: }
  3124                           ;main.c: 199: case 0x0C:
  3125                           
  3126                           ;main.c: 197: break;
  3127                           
  3128                           
  3129                           ;main.c: 200: {
  3130                           ;main.c: 201: irqEn = 0x77;
  3131  002A  3077               	movlw	119
  3132  002B  00B3               	movwf	??_MFRC522_ToCard
  3133  002C  0833               	movf	??_MFRC522_ToCard,w
  3134  002D  00BC               	movwf	MFRC522_ToCard@irqEn
  3135                           
  3136                           ;main.c: 202: waitIRq = 0x30;
  3137  002E  3030               	movlw	48
  3138  002F                     L5:	
  3139  002F  00B3               	movwf	??_MFRC522_ToCard
  3140  0030  0833               	movf	??_MFRC522_ToCard,w
  3141  0031  00B9               	movwf	MFRC522_ToCard@waitIRq
  3142                           
  3143                           ;main.c: 207: }
  3144                           
  3145                           ;main.c: 206: break;
  3146                           
  3147                           ;main.c: 204: }
  3148                           ;main.c: 205: default:
  3149                           
  3150                           ;main.c: 203: break;
  3151  0032  283B               	goto	l2239
  3152  0033                     l2237:	
  3153  0033  083D               	movf	MFRC522_ToCard@command,w
  3154                           
  3155                           ; Switch size 1, requested type "space"
  3156                           ; Number of cases is 2, Range of values is 12 to 14
  3157                           ; switch strategies available:
  3158                           ; Name         Instructions Cycles
  3159                           ; simple_byte            7     4 (average)
  3160                           ; direct_byte           12     9 (fixed)
  3161                           ; jumptable            263     9 (fixed)
  3162                           ;	Chosen strategy is simple_byte
  3163  0034  3A0C               	xorlw	12	; case 12
  3164  0035  1903               	skipnz
  3165  0036  282A               	goto	l2233
  3166  0037  3A02               	xorlw	2	; case 14
  3167  0038  1903               	skipnz
  3168  0039  2824               	goto	l2231
  3169  003A  283B               	goto	l2239
  3170  003B                     l2239:	
  3171                           
  3172                           ;main.c: 208: MFRC522_Wr( 0x02, irqEn | 0x80 );
  3173  003B  083C               	movf	MFRC522_ToCard@irqEn,w
  3174  003C  3880               	iorlw	128
  3175  003D  00B3               	movwf	??_MFRC522_ToCard
  3176  003E  0833               	movf	??_MFRC522_ToCard,w
  3177  003F  00A8               	movwf	MFRC522_Wr@value
  3178  0040  3002               	movlw	2
  3179  0041  2740               	fcall	_MFRC522_Wr
  3180                           
  3181                           ;main.c: 209: MFRC522_Clear_Bit( 0x04, 0x80 );
  3182  0042  3080               	movlw	128
  3183  0043  1283               	bcf	3,5	;RP0=0, select bank0
  3184  0044  1303               	bcf	3,6	;RP1=0, select bank0
  3185  0045  00B3               	movwf	??_MFRC522_ToCard
  3186  0046  0833               	movf	??_MFRC522_ToCard,w
  3187  0047  00AB               	movwf	MFRC522_Clear_Bit@mask
  3188  0048  3004               	movlw	4
  3189  0049  2761               	fcall	_MFRC522_Clear_Bit
  3190                           
  3191                           ;main.c: 210: MFRC522_Set_Bit( 0x0A, 0x80 );
  3192  004A  3080               	movlw	128
  3193  004B  1283               	bcf	3,5	;RP0=0, select bank0
  3194  004C  1303               	bcf	3,6	;RP1=0, select bank0
  3195  004D  00B3               	movwf	??_MFRC522_ToCard
  3196  004E  0833               	movf	??_MFRC522_ToCard,w
  3197  004F  00AB               	movwf	MFRC522_Set_Bit@mask
  3198  0050  300A               	movlw	10
  3199  0051  2771               	fcall	_MFRC522_Set_Bit
  3200                           
  3201                           ;main.c: 211: MFRC522_Wr( 0x01, 0x00 );
  3202  0052  1283               	bcf	3,5	;RP0=0, select bank0
  3203  0053  1303               	bcf	3,6	;RP1=0, select bank0
  3204  0054  01A8               	clrf	MFRC522_Wr@value
  3205  0055  3001               	movlw	1
  3206  0056  2740               	fcall	_MFRC522_Wr
  3207                           
  3208                           ;main.c: 216: for ( i=0; i < sendLen; i++ )
  3209  0057  1283               	bcf	3,5	;RP0=0, select bank0
  3210  0058  1303               	bcf	3,6	;RP1=0, select bank0
  3211  0059  01BE               	clrf	MFRC522_ToCard@i
  3212  005A  01BF               	clrf	MFRC522_ToCard@i+1
  3213  005B                     l2247:	
  3214  005B  0830               	movf	MFRC522_ToCard@sendLen,w
  3215  005C  00B3               	movwf	??_MFRC522_ToCard
  3216  005D  01B4               	clrf	??_MFRC522_ToCard+1
  3217  005E  0834               	movf	??_MFRC522_ToCard+1,w
  3218  005F  023F               	subwf	MFRC522_ToCard@i+1,w
  3219  0060  1D03               	skipz
  3220  0061  2864               	goto	u2165
  3221  0062  0833               	movf	??_MFRC522_ToCard,w
  3222  0063  023E               	subwf	MFRC522_ToCard@i,w
  3223  0064                     u2165:	
  3224  0064  1803               	btfsc	3,0
  3225  0065  287B               	goto	l2249
  3226                           
  3227                           ;main.c: 217: {
  3228                           ;main.c: 218: MFRC522_Wr( 0x09, sendData[i] );
  3229  0066  083E               	movf	MFRC522_ToCard@i,w
  3230  0067  072F               	addwf	MFRC522_ToCard@sendData,w
  3231  0068  00B3               	movwf	??_MFRC522_ToCard
  3232  0069  0833               	movf	??_MFRC522_ToCard,w
  3233  006A  0084               	movwf	4
  3234  006B  1383               	bcf	3,7	;select IRP bank0
  3235  006C  0800               	movf	0,w
  3236  006D  00B4               	movwf	??_MFRC522_ToCard+1
  3237  006E  0834               	movf	??_MFRC522_ToCard+1,w
  3238  006F  00A8               	movwf	MFRC522_Wr@value
  3239  0070  3009               	movlw	9
  3240  0071  2740               	fcall	_MFRC522_Wr
  3241  0072  3001               	movlw	1
  3242  0073  1283               	bcf	3,5	;RP0=0, select bank0
  3243  0074  1303               	bcf	3,6	;RP1=0, select bank0
  3244  0075  07BE               	addwf	MFRC522_ToCard@i,f
  3245  0076  1803               	skipnc
  3246  0077  0ABF               	incf	MFRC522_ToCard@i+1,f
  3247  0078  3000               	movlw	0
  3248  0079  07BF               	addwf	MFRC522_ToCard@i+1,f
  3249  007A  285B               	goto	l2247
  3250  007B                     l2249:	
  3251                           
  3252                           ;main.c: 219: }
  3253                           ;main.c: 221: MFRC522_Wr( 0x01, command );
  3254  007B  083D               	movf	MFRC522_ToCard@command,w
  3255  007C  00B3               	movwf	??_MFRC522_ToCard
  3256  007D  0833               	movf	??_MFRC522_ToCard,w
  3257  007E  00A8               	movwf	MFRC522_Wr@value
  3258  007F  3001               	movlw	1
  3259  0080  2740               	fcall	_MFRC522_Wr
  3260                           
  3261                           ;main.c: 222: if (command == 0x0C )
  3262  0081  1283               	bcf	3,5	;RP0=0, select bank0
  3263  0082  1303               	bcf	3,6	;RP1=0, select bank0
  3264  0083  083D               	movf	MFRC522_ToCard@command,w
  3265  0084  3A0C               	xorlw	12
  3266  0085  1D03               	skipz
  3267  0086  288D               	goto	l2255
  3268                           
  3269                           ;main.c: 223: {
  3270                           ;main.c: 224: MFRC522_Set_Bit( 0x0D, 0x80 );
  3271  0087  3080               	movlw	128
  3272  0088  00B3               	movwf	??_MFRC522_ToCard
  3273  0089  0833               	movf	??_MFRC522_ToCard,w
  3274  008A  00AB               	movwf	MFRC522_Set_Bit@mask
  3275  008B  300D               	movlw	13
  3276  008C  2771               	fcall	_MFRC522_Set_Bit
  3277  008D                     l2255:	
  3278                           
  3279                           ;main.c: 225: }
  3280                           ;main.c: 228: i = 0xFFFF;
  3281  008D  30FF               	movlw	255
  3282  008E  1283               	bcf	3,5	;RP0=0, select bank0
  3283  008F  1303               	bcf	3,6	;RP1=0, select bank0
  3284  0090  00BE               	movwf	MFRC522_ToCard@i
  3285  0091  30FF               	movlw	255
  3286  0092  00BF               	movwf	MFRC522_ToCard@i+1
  3287  0093                     l2257:	
  3288                           ;main.c: 229: do
  3289                           
  3290                           
  3291                           ;main.c: 230: {
  3292                           ;main.c: 233: n = MFRC522_Rd( 0x04 );
  3293  0093  3004               	movlw	4
  3294  0094  2708               	fcall	_MFRC522_Rd
  3295  0095  1283               	bcf	3,5	;RP0=0, select bank0
  3296  0096  1303               	bcf	3,6	;RP1=0, select bank0
  3297  0097  00B3               	movwf	??_MFRC522_ToCard
  3298  0098  0833               	movf	??_MFRC522_ToCard,w
  3299  0099  00C0               	movwf	MFRC522_ToCard@n
  3300                           
  3301                           ;main.c: 234: i--;
  3302  009A  3001               	movlw	1
  3303  009B  02BE               	subwf	MFRC522_ToCard@i,f
  3304  009C  3000               	movlw	0
  3305  009D  1C03               	skipc
  3306  009E  03BF               	decf	MFRC522_ToCard@i+1,f
  3307  009F  02BF               	subwf	MFRC522_ToCard@i+1,f
  3308                           
  3309                           ;main.c: 235: }
  3310                           ;main.c: 236: while ( i && !(n & 0x01) && !( n & waitIRq ) );
  3311  00A0  083F               	movf	MFRC522_ToCard@i+1,w
  3312  00A1  043E               	iorwf	MFRC522_ToCard@i,w
  3313  00A2  1D03               	btfss	3,2
  3314  00A3  1840               	btfsc	MFRC522_ToCard@n,0
  3315  00A4  28A9               	goto	l2263
  3316  00A5  0840               	movf	MFRC522_ToCard@n,w
  3317  00A6  0539               	andwf	MFRC522_ToCard@waitIRq,w
  3318  00A7  1903               	btfsc	3,2
  3319  00A8  2893               	goto	l2257
  3320  00A9                     l2263:	
  3321                           
  3322                           ;main.c: 237: MFRC522_Clear_Bit( 0x0D, 0x80 );
  3323  00A9  3080               	movlw	128
  3324  00AA  00B3               	movwf	??_MFRC522_ToCard
  3325  00AB  0833               	movf	??_MFRC522_ToCard,w
  3326  00AC  00AB               	movwf	MFRC522_Clear_Bit@mask
  3327  00AD  300D               	movlw	13
  3328  00AE  2761               	fcall	_MFRC522_Clear_Bit
  3329                           
  3330                           ;main.c: 238: if (i != 0)
  3331  00AF  1283               	bcf	3,5	;RP0=0, select bank0
  3332  00B0  1303               	bcf	3,6	;RP1=0, select bank0
  3333  00B1  083F               	movf	MFRC522_ToCard@i+1,w
  3334  00B2  043E               	iorwf	MFRC522_ToCard@i,w
  3335  00B3  1903               	skipnz
  3336  00B4  294D               	goto	l126
  3337                           
  3338                           ;main.c: 239: {
  3339                           ;main.c: 240: if( !( MFRC522_Rd( 0x06 ) & 0x1B ) )
  3340  00B5  3006               	movlw	6
  3341  00B6  2708               	fcall	_MFRC522_Rd
  3342  00B7  391B               	andlw	27
  3343  00B8  1D03               	btfss	3,2
  3344  00B9  2947               	goto	l2303
  3345                           
  3346                           ;main.c: 241: {
  3347                           ;main.c: 242: _status = 0;
  3348  00BA  1283               	bcf	3,5	;RP0=0, select bank0
  3349  00BB  1303               	bcf	3,6	;RP1=0, select bank0
  3350  00BC  01BA               	clrf	MFRC522_ToCard@_status
  3351                           
  3352                           ;main.c: 243: if ( n & irqEn & 0x01 )
  3353  00BD  083C               	movf	MFRC522_ToCard@irqEn,w
  3354  00BE  0540               	andwf	MFRC522_ToCard@n,w
  3355  00BF  00B3               	movwf	??_MFRC522_ToCard
  3356  00C0  1C33               	btfss	??_MFRC522_ToCard,0
  3357  00C1  28C4               	goto	l2275
  3358                           
  3359                           ;main.c: 244: {
  3360                           ;main.c: 245: _status = 1;
  3361  00C2  01BA               	clrf	MFRC522_ToCard@_status
  3362  00C3  0ABA               	incf	MFRC522_ToCard@_status,f
  3363  00C4                     l2275:	
  3364                           
  3365                           ;main.c: 246: }
  3366                           ;main.c: 247: if ( command == 0x0C )
  3367  00C4  083D               	movf	MFRC522_ToCard@command,w
  3368  00C5  3A0C               	xorlw	12
  3369  00C6  1D03               	skipz
  3370  00C7  294D               	goto	l126
  3371                           
  3372                           ;main.c: 248: {
  3373                           ;main.c: 249: n = MFRC522_Rd( 0x0A );
  3374  00C8  300A               	movlw	10
  3375  00C9  2708               	fcall	_MFRC522_Rd
  3376  00CA  1283               	bcf	3,5	;RP0=0, select bank0
  3377  00CB  1303               	bcf	3,6	;RP1=0, select bank0
  3378  00CC  00B3               	movwf	??_MFRC522_ToCard
  3379  00CD  0833               	movf	??_MFRC522_ToCard,w
  3380  00CE  00C0               	movwf	MFRC522_ToCard@n
  3381                           
  3382                           ;main.c: 250: lastBits = MFRC522_Rd( 0x0C ) & 0x07;
  3383  00CF  300C               	movlw	12
  3384  00D0  2708               	fcall	_MFRC522_Rd
  3385  00D1  3907               	andlw	7
  3386  00D2  1283               	bcf	3,5	;RP0=0, select bank0
  3387  00D3  1303               	bcf	3,6	;RP1=0, select bank0
  3388  00D4  00B3               	movwf	??_MFRC522_ToCard
  3389  00D5  0833               	movf	??_MFRC522_ToCard,w
  3390  00D6  00BB               	movwf	MFRC522_ToCard@lastBits
  3391                           
  3392                           ;main.c: 251: if (lastBits)
  3393  00D7  083B               	movf	MFRC522_ToCard@lastBits,w
  3394  00D8  1903               	btfsc	3,2
  3395  00D9  28FE               	goto	l2283
  3396                           
  3397                           ;main.c: 252: {
  3398                           ;main.c: 253: *backLen = (n-1) * 8 + lastBits;
  3399  00DA  0840               	movf	MFRC522_ToCard@n,w
  3400  00DB  00B3               	movwf	??_MFRC522_ToCard
  3401  00DC  01B4               	clrf	??_MFRC522_ToCard+1
  3402  00DD  1003               	clrc
  3403  00DE  0DB3               	rlf	??_MFRC522_ToCard,f
  3404  00DF  0DB4               	rlf	??_MFRC522_ToCard+1,f
  3405  00E0  1003               	clrc
  3406  00E1  0DB3               	rlf	??_MFRC522_ToCard,f
  3407  00E2  0DB4               	rlf	??_MFRC522_ToCard+1,f
  3408  00E3  1003               	clrc
  3409  00E4  0DB3               	rlf	??_MFRC522_ToCard,f
  3410  00E5  0DB4               	rlf	??_MFRC522_ToCard+1,f
  3411  00E6  083B               	movf	MFRC522_ToCard@lastBits,w
  3412  00E7  0733               	addwf	??_MFRC522_ToCard,w
  3413  00E8  00B5               	movwf	??_MFRC522_ToCard+2
  3414  00E9  3000               	movlw	0
  3415  00EA  1803               	skipnc
  3416  00EB  3001               	movlw	1
  3417  00EC  0734               	addwf	??_MFRC522_ToCard+1,w
  3418  00ED  00B6               	movwf	??_MFRC522_ToCard+3
  3419  00EE  0835               	movf	??_MFRC522_ToCard+2,w
  3420  00EF  3EF8               	addlw	248
  3421  00F0  00B7               	movwf	??_MFRC522_ToCard+4
  3422  00F1  0836               	movf	??_MFRC522_ToCard+3,w
  3423  00F2  1803               	skipnc
  3424  00F3  3E01               	addlw	1
  3425  00F4  3EFF               	addlw	255
  3426  00F5  00B8               	movwf	??_MFRC522_ToCard+5
  3427  00F6  0832               	movf	MFRC522_ToCard@backLen,w
  3428  00F7  0084               	movwf	4
  3429  00F8  0837               	movf	??_MFRC522_ToCard+4,w
  3430  00F9  1383               	bcf	3,7	;select IRP bank0
  3431  00FA  0080               	movwf	0
  3432  00FB  0A84               	incf	4,f
  3433  00FC  0838               	movf	??_MFRC522_ToCard+5,w
  3434  00FD  2911               	goto	L6
  3435  00FE                     l2283:	
  3436                           ;main.c: 254: }
  3437                           
  3438                           
  3439                           ;main.c: 255: else
  3440                           ;main.c: 256: {
  3441                           ;main.c: 257: *backLen = n * 8;
  3442  00FE  0840               	movf	MFRC522_ToCard@n,w
  3443  00FF  00B3               	movwf	??_MFRC522_ToCard
  3444  0100  01B4               	clrf	??_MFRC522_ToCard+1
  3445  0101  1003               	clrc
  3446  0102  0DB3               	rlf	??_MFRC522_ToCard,f
  3447  0103  0DB4               	rlf	??_MFRC522_ToCard+1,f
  3448  0104  1003               	clrc
  3449  0105  0DB3               	rlf	??_MFRC522_ToCard,f
  3450  0106  0DB4               	rlf	??_MFRC522_ToCard+1,f
  3451  0107  1003               	clrc
  3452  0108  0DB3               	rlf	??_MFRC522_ToCard,f
  3453  0109  0DB4               	rlf	??_MFRC522_ToCard+1,f
  3454  010A  0832               	movf	MFRC522_ToCard@backLen,w
  3455  010B  0084               	movwf	4
  3456  010C  0833               	movf	??_MFRC522_ToCard,w
  3457  010D  1383               	bcf	3,7	;select IRP bank0
  3458  010E  0080               	movwf	0
  3459  010F  0A84               	incf	4,f
  3460  0110  0834               	movf	??_MFRC522_ToCard+1,w
  3461  0111                     L6:	
  3462  0111  0080               	movwf	0
  3463                           
  3464                           ;main.c: 258: }
  3465                           ;main.c: 259: if (n == 0)
  3466  0112  08C0               	movf	MFRC522_ToCard@n,f
  3467  0113  1D03               	skipz
  3468  0114  2917               	goto	l2289
  3469                           
  3470                           ;main.c: 260: {
  3471                           ;main.c: 261: n = 1;
  3472  0115  01C0               	clrf	MFRC522_ToCard@n
  3473  0116  0AC0               	incf	MFRC522_ToCard@n,f
  3474  0117                     l2289:	
  3475                           
  3476                           ;main.c: 262: }
  3477                           ;main.c: 263: if (n > 16)
  3478  0117  3011               	movlw	17
  3479  0118  0240               	subwf	MFRC522_ToCard@n,w
  3480  0119  1C03               	skipc
  3481  011A  291F               	goto	l2293
  3482                           
  3483                           ;main.c: 264: {
  3484                           ;main.c: 265: n = 16;
  3485  011B  3010               	movlw	16
  3486  011C  00B3               	movwf	??_MFRC522_ToCard
  3487  011D  0833               	movf	??_MFRC522_ToCard,w
  3488  011E  00C0               	movwf	MFRC522_ToCard@n
  3489  011F                     l2293:	
  3490                           
  3491                           ;main.c: 266: }
  3492                           ;main.c: 268: for (i=0; i < n; i++)
  3493  011F  01BE               	clrf	MFRC522_ToCard@i
  3494  0120  01BF               	clrf	MFRC522_ToCard@i+1
  3495  0121                     l2299:	
  3496  0121  0840               	movf	MFRC522_ToCard@n,w
  3497  0122  00B3               	movwf	??_MFRC522_ToCard
  3498  0123  01B4               	clrf	??_MFRC522_ToCard+1
  3499  0124  0834               	movf	??_MFRC522_ToCard+1,w
  3500  0125  023F               	subwf	MFRC522_ToCard@i+1,w
  3501  0126  1D03               	skipz
  3502  0127  292A               	goto	u2285
  3503  0128  0833               	movf	??_MFRC522_ToCard,w
  3504  0129  023E               	subwf	MFRC522_ToCard@i,w
  3505  012A                     u2285:	
  3506  012A  1803               	btfsc	3,0
  3507  012B  2940               	goto	l2301
  3508                           
  3509                           ;main.c: 269: {
  3510                           ;main.c: 270: backData[i] = MFRC522_Rd( 0x09 );
  3511  012C  3009               	movlw	9
  3512  012D  2708               	fcall	_MFRC522_Rd
  3513  012E  1283               	bcf	3,5	;RP0=0, select bank0
  3514  012F  1303               	bcf	3,6	;RP1=0, select bank0
  3515  0130  00B3               	movwf	??_MFRC522_ToCard
  3516  0131  083E               	movf	MFRC522_ToCard@i,w
  3517  0132  0731               	addwf	MFRC522_ToCard@backData,w
  3518  0133  00B4               	movwf	??_MFRC522_ToCard+1
  3519  0134  0834               	movf	??_MFRC522_ToCard+1,w
  3520  0135  0084               	movwf	4
  3521  0136  0833               	movf	??_MFRC522_ToCard,w
  3522  0137  1383               	bcf	3,7	;select IRP bank0
  3523  0138  0080               	movwf	0
  3524  0139  3001               	movlw	1
  3525  013A  07BE               	addwf	MFRC522_ToCard@i,f
  3526  013B  1803               	skipnc
  3527  013C  0ABF               	incf	MFRC522_ToCard@i+1,f
  3528  013D  3000               	movlw	0
  3529  013E  07BF               	addwf	MFRC522_ToCard@i+1,f
  3530  013F  2921               	goto	l2299
  3531  0140                     l2301:	
  3532                           
  3533                           ;main.c: 271: }
  3534                           ;main.c: 273: backData[i] = 0;
  3535  0140  083E               	movf	MFRC522_ToCard@i,w
  3536  0141  0731               	addwf	MFRC522_ToCard@backData,w
  3537  0142  00B3               	movwf	??_MFRC522_ToCard
  3538  0143  0833               	movf	??_MFRC522_ToCard,w
  3539  0144  0084               	movwf	4
  3540  0145  0180               	clrf	0
  3541                           
  3542                           ;main.c: 274: }
  3543                           ;main.c: 275: }
  3544  0146  294D               	goto	l126
  3545  0147                     l2303:	
  3546                           
  3547                           ;main.c: 276: else
  3548                           ;main.c: 277: {
  3549                           ;main.c: 278: _status = 2;
  3550  0147  3002               	movlw	2
  3551  0148  1283               	bcf	3,5	;RP0=0, select bank0
  3552  0149  1303               	bcf	3,6	;RP1=0, select bank0
  3553  014A  00B3               	movwf	??_MFRC522_ToCard
  3554  014B  0833               	movf	??_MFRC522_ToCard,w
  3555  014C  00BA               	movwf	MFRC522_ToCard@_status
  3556  014D                     l126:	
  3557                           
  3558                           ;main.c: 279: }
  3559                           ;main.c: 280: }
  3560                           ;main.c: 283: return _status;
  3561  014D  083A               	movf	MFRC522_ToCard@_status,w
  3562  014E  0008               	return
  3563  014F                     __end_of_MFRC522_ToCard:	
  3564                           
  3565                           	psect	text18
  3566  0761                     __ptext18:	
  3567 ;; *************** function _MFRC522_Clear_Bit *****************
  3568 ;; Defined at:
  3569 ;;		line 140 in file "main.c"
  3570 ;; Parameters:    Size  Location     Type
  3571 ;;  addr            1    wreg     unsigned char 
  3572 ;;  mask            1   11[BANK0 ] unsigned char 
  3573 ;; Auto vars:     Size  Location     Type
  3574 ;;  addr            1   14[BANK0 ] unsigned char 
  3575 ;; Return value:  Size  Location     Type
  3576 ;;		None               void
  3577 ;; Registers used:
  3578 ;;		wreg, status,2, status,0, btemp+1, pclath, cstack
  3579 ;; Tracked objects:
  3580 ;;		On entry : 0/0
  3581 ;;		On exit  : 0/0
  3582 ;;		Unchanged: 0/0
  3583 ;; Data sizes:     COMMON   BANK0   BANK1   BANK2
  3584 ;;      Params:         0       1       0       0
  3585 ;;      Locals:         0       1       0       0
  3586 ;;      Temps:          0       2       0       0
  3587 ;;      Totals:         0       4       0       0
  3588 ;;Total ram usage:        4 bytes
  3589 ;; Hardware stack levels used:    1
  3590 ;; Hardware stack levels required when called:    4
  3591 ;; This function calls:
  3592 ;;		_MFRC522_Rd
  3593 ;;		_MFRC522_Wr
  3594 ;; This function is called by:
  3595 ;;		_MFRC522_ToCard
  3596 ;;		_MFRC522_AntiColl
  3597 ;;		_MFRC522_AntennaOff
  3598 ;;		_MFRC522_CRC
  3599 ;;		_MFRC522_Halt
  3600 ;; This function uses a non-reentrant model
  3601 ;;
  3602                           
  3603                           
  3604                           ;psect for function _MFRC522_Clear_Bit
  3605  0761                     _MFRC522_Clear_Bit:	
  3606                           
  3607                           ;incstack = 0
  3608                           ; Regs used in _MFRC522_Clear_Bit: [wreg+status,2+status,0+btemp+1+pclath+cstack]
  3609                           ;MFRC522_Clear_Bit@addr stored from wreg
  3610  0761  1283               	bcf	3,5	;RP0=0, select bank0
  3611  0762  1303               	bcf	3,6	;RP1=0, select bank0
  3612  0763  00AE               	movwf	MFRC522_Clear_Bit@addr
  3613                           
  3614                           ;main.c: 142: MFRC522_Wr( addr, MFRC522_Rd( addr ) & (~mask) );
  3615  0764  092B               	comf	MFRC522_Clear_Bit@mask,w
  3616  0765  00AC               	movwf	??_MFRC522_Clear_Bit
  3617  0766  082E               	movf	MFRC522_Clear_Bit@addr,w
  3618  0767  2708               	fcall	_MFRC522_Rd
  3619  0768  1283               	bcf	3,5	;RP0=0, select bank0
  3620  0769  1303               	bcf	3,6	;RP1=0, select bank0
  3621  076A  052C               	andwf	??_MFRC522_Clear_Bit,w
  3622  076B  00AD               	movwf	??_MFRC522_Clear_Bit+1
  3623  076C  082D               	movf	??_MFRC522_Clear_Bit+1,w
  3624  076D  00A8               	movwf	MFRC522_Wr@value
  3625  076E  082E               	movf	MFRC522_Clear_Bit@addr,w
  3626  076F  2740               	fcall	_MFRC522_Wr
  3627  0770  0008               	return
  3628  0771                     __end_of_MFRC522_Clear_Bit:	
  3629                           
  3630                           	psect	text19
  3631  05BF                     __ptext19:	
  3632 ;; *************** function _MFRC522_Init *****************
  3633 ;; Defined at:
  3634 ;;		line 160 in file "main.c"
  3635 ;; Parameters:    Size  Location     Type
  3636 ;;		None
  3637 ;; Auto vars:     Size  Location     Type
  3638 ;;		None
  3639 ;; Return value:  Size  Location     Type
  3640 ;;		None               void
  3641 ;; Registers used:
  3642 ;;		wreg, status,2, status,0, btemp+1, pclath, cstack
  3643 ;; Tracked objects:
  3644 ;;		On entry : 0/0
  3645 ;;		On exit  : 0/0
  3646 ;;		Unchanged: 0/0
  3647 ;; Data sizes:     COMMON   BANK0   BANK1   BANK2
  3648 ;;      Params:         0       0       0       0
  3649 ;;      Locals:         0       0       0       0
  3650 ;;      Temps:          0       1       0       0
  3651 ;;      Totals:         0       1       0       0
  3652 ;;Total ram usage:        1 bytes
  3653 ;; Hardware stack levels used:    1
  3654 ;; Hardware stack levels required when called:    6
  3655 ;; This function calls:
  3656 ;;		_MFRC522_AntennaOn
  3657 ;;		_MFRC522_Reset
  3658 ;;		_MFRC522_Wr
  3659 ;; This function is called by:
  3660 ;;		_main
  3661 ;; This function uses a non-reentrant model
  3662 ;;
  3663                           
  3664                           
  3665                           ;psect for function _MFRC522_Init
  3666  05BF                     _MFRC522_Init:	
  3667                           
  3668                           ;main.c: 162: TRISAbits.TRISA1 = 0;
  3669                           
  3670                           ;incstack = 0
  3671                           ; Regs used in _MFRC522_Init: [wreg+status,2+status,0+btemp+1+pclath+cstack]
  3672  05BF  1683               	bsf	3,5	;RP0=1, select bank1
  3673  05C0  1303               	bcf	3,6	;RP1=0, select bank1
  3674  05C1  1085               	bcf	5,1	;volatile
  3675                           
  3676                           ;main.c: 163: TRISAbits.TRISA0 = 0;
  3677  05C2  1005               	bcf	5,0	;volatile
  3678                           
  3679                           ;main.c: 164: PORTAbits.RA1 = 1;
  3680  05C3  1283               	bcf	3,5	;RP0=0, select bank0
  3681  05C4  1303               	bcf	3,6	;RP1=0, select bank0
  3682  05C5  1485               	bsf	5,1	;volatile
  3683                           
  3684                           ;main.c: 165: PORTAbits.RA0 = 1;
  3685  05C6  1405               	bsf	5,0	;volatile
  3686                           
  3687                           ;main.c: 167: MFRC522_Reset();
  3688  05C7  278D               	fcall	_MFRC522_Reset
  3689                           
  3690                           ;main.c: 169: MFRC522_Wr( 0x2A, 0x8D );
  3691  05C8  308D               	movlw	141
  3692  05C9  1283               	bcf	3,5	;RP0=0, select bank0
  3693  05CA  1303               	bcf	3,6	;RP1=0, select bank0
  3694  05CB  00AF               	movwf	??_MFRC522_Init
  3695  05CC  082F               	movf	??_MFRC522_Init,w
  3696  05CD  00A8               	movwf	MFRC522_Wr@value
  3697  05CE  302A               	movlw	42
  3698  05CF  2740               	fcall	_MFRC522_Wr
  3699                           
  3700                           ;main.c: 170: MFRC522_Wr( 0x2B, 0x3E );
  3701  05D0  303E               	movlw	62
  3702  05D1  1283               	bcf	3,5	;RP0=0, select bank0
  3703  05D2  1303               	bcf	3,6	;RP1=0, select bank0
  3704  05D3  00AF               	movwf	??_MFRC522_Init
  3705  05D4  082F               	movf	??_MFRC522_Init,w
  3706  05D5  00A8               	movwf	MFRC522_Wr@value
  3707  05D6  302B               	movlw	43
  3708  05D7  2740               	fcall	_MFRC522_Wr
  3709                           
  3710                           ;main.c: 171: MFRC522_Wr( 0x2D, 30 );
  3711  05D8  301E               	movlw	30
  3712  05D9  1283               	bcf	3,5	;RP0=0, select bank0
  3713  05DA  1303               	bcf	3,6	;RP1=0, select bank0
  3714  05DB  00AF               	movwf	??_MFRC522_Init
  3715  05DC  082F               	movf	??_MFRC522_Init,w
  3716  05DD  00A8               	movwf	MFRC522_Wr@value
  3717  05DE  302D               	movlw	45
  3718  05DF  2740               	fcall	_MFRC522_Wr
  3719                           
  3720                           ;main.c: 172: MFRC522_Wr( 0x2C, 0 );
  3721  05E0  1283               	bcf	3,5	;RP0=0, select bank0
  3722  05E1  1303               	bcf	3,6	;RP1=0, select bank0
  3723  05E2  01A8               	clrf	MFRC522_Wr@value
  3724  05E3  302C               	movlw	44
  3725  05E4  2740               	fcall	_MFRC522_Wr
  3726                           
  3727                           ;main.c: 174: MFRC522_Wr( 0x15, 0x40 );
  3728  05E5  3040               	movlw	64
  3729  05E6  1283               	bcf	3,5	;RP0=0, select bank0
  3730  05E7  1303               	bcf	3,6	;RP1=0, select bank0
  3731  05E8  00AF               	movwf	??_MFRC522_Init
  3732  05E9  082F               	movf	??_MFRC522_Init,w
  3733  05EA  00A8               	movwf	MFRC522_Wr@value
  3734  05EB  3015               	movlw	21
  3735  05EC  2740               	fcall	_MFRC522_Wr
  3736                           
  3737                           ;main.c: 175: MFRC522_Wr( 0x11, 0x3D );
  3738  05ED  303D               	movlw	61
  3739  05EE  1283               	bcf	3,5	;RP0=0, select bank0
  3740  05EF  1303               	bcf	3,6	;RP1=0, select bank0
  3741  05F0  00AF               	movwf	??_MFRC522_Init
  3742  05F1  082F               	movf	??_MFRC522_Init,w
  3743  05F2  00A8               	movwf	MFRC522_Wr@value
  3744  05F3  3011               	movlw	17
  3745  05F4  2740               	fcall	_MFRC522_Wr
  3746                           
  3747                           ;main.c: 180: MFRC522_AntennaOn();
  3748  05F5  2796               	fcall	_MFRC522_AntennaOn
  3749  05F6  0008               	return
  3750  05F7                     __end_of_MFRC522_Init:	
  3751                           
  3752                           	psect	text20
  3753  078D                     __ptext20:	
  3754 ;; *************** function _MFRC522_Reset *****************
  3755 ;; Defined at:
  3756 ;;		line 148 in file "main.c"
  3757 ;; Parameters:    Size  Location     Type
  3758 ;;		None
  3759 ;; Auto vars:     Size  Location     Type
  3760 ;;		None
  3761 ;; Return value:  Size  Location     Type
  3762 ;;		None               void
  3763 ;; Registers used:
  3764 ;;		wreg, status,2, status,0, btemp+1, pclath, cstack
  3765 ;; Tracked objects:
  3766 ;;		On entry : 0/0
  3767 ;;		On exit  : 0/0
  3768 ;;		Unchanged: 0/0
  3769 ;; Data sizes:     COMMON   BANK0   BANK1   BANK2
  3770 ;;      Params:         0       0       0       0
  3771 ;;      Locals:         0       0       0       0
  3772 ;;      Temps:          0       1       0       0
  3773 ;;      Totals:         0       1       0       0
  3774 ;;Total ram usage:        1 bytes
  3775 ;; Hardware stack levels used:    1
  3776 ;; Hardware stack levels required when called:    4
  3777 ;; This function calls:
  3778 ;;		_MFRC522_Wr
  3779 ;; This function is called by:
  3780 ;;		_MFRC522_Init
  3781 ;; This function uses a non-reentrant model
  3782 ;;
  3783                           
  3784                           
  3785                           ;psect for function _MFRC522_Reset
  3786  078D                     _MFRC522_Reset:	
  3787                           
  3788                           ;main.c: 150: MFRC522_Wr( 0x01, 0x0F );
  3789                           
  3790                           ;incstack = 0
  3791                           ; Regs used in _MFRC522_Reset: [wreg+status,2+status,0+btemp+1+pclath+cstack]
  3792  078D  300F               	movlw	15
  3793  078E  1283               	bcf	3,5	;RP0=0, select bank0
  3794  078F  1303               	bcf	3,6	;RP1=0, select bank0
  3795  0790  00AB               	movwf	??_MFRC522_Reset
  3796  0791  082B               	movf	??_MFRC522_Reset,w
  3797  0792  00A8               	movwf	MFRC522_Wr@value
  3798  0793  3001               	movlw	1
  3799  0794  2740               	fcall	_MFRC522_Wr
  3800  0795  0008               	return
  3801  0796                     __end_of_MFRC522_Reset:	
  3802                           
  3803                           	psect	text21
  3804  0796                     __ptext21:	
  3805 ;; *************** function _MFRC522_AntennaOn *****************
  3806 ;; Defined at:
  3807 ;;		line 152 in file "main.c"
  3808 ;; Parameters:    Size  Location     Type
  3809 ;;		None
  3810 ;; Auto vars:     Size  Location     Type
  3811 ;;		None
  3812 ;; Return value:  Size  Location     Type
  3813 ;;		None               void
  3814 ;; Registers used:
  3815 ;;		wreg, status,2, status,0, btemp+1, pclath, cstack
  3816 ;; Tracked objects:
  3817 ;;		On entry : 0/0
  3818 ;;		On exit  : 0/0
  3819 ;;		Unchanged: 0/0
  3820 ;; Data sizes:     COMMON   BANK0   BANK1   BANK2
  3821 ;;      Params:         0       0       0       0
  3822 ;;      Locals:         0       0       0       0
  3823 ;;      Temps:          0       1       0       0
  3824 ;;      Totals:         0       1       0       0
  3825 ;;Total ram usage:        1 bytes
  3826 ;; Hardware stack levels used:    1
  3827 ;; Hardware stack levels required when called:    5
  3828 ;; This function calls:
  3829 ;;		_MFRC522_Set_Bit
  3830 ;; This function is called by:
  3831 ;;		_MFRC522_Init
  3832 ;; This function uses a non-reentrant model
  3833 ;;
  3834                           
  3835                           
  3836                           ;psect for function _MFRC522_AntennaOn
  3837  0796                     _MFRC522_AntennaOn:	
  3838                           
  3839                           ;main.c: 154: MFRC522_Set_Bit( 0x14, 0x03 );
  3840                           
  3841                           ;incstack = 0
  3842                           ; Regs used in _MFRC522_AntennaOn: [wreg+status,2+status,0+btemp+1+pclath+cstack]
  3843  0796  3003               	movlw	3
  3844  0797  1283               	bcf	3,5	;RP0=0, select bank0
  3845  0798  1303               	bcf	3,6	;RP1=0, select bank0
  3846  0799  00AE               	movwf	??_MFRC522_AntennaOn
  3847  079A  082E               	movf	??_MFRC522_AntennaOn,w
  3848  079B  00AB               	movwf	MFRC522_Set_Bit@mask
  3849  079C  3014               	movlw	20
  3850  079D  2771               	fcall	_MFRC522_Set_Bit
  3851  079E  0008               	return
  3852  079F                     __end_of_MFRC522_AntennaOn:	
  3853                           
  3854                           	psect	text22
  3855  0771                     __ptext22:	
  3856 ;; *************** function _MFRC522_Set_Bit *****************
  3857 ;; Defined at:
  3858 ;;		line 144 in file "main.c"
  3859 ;; Parameters:    Size  Location     Type
  3860 ;;  addr            1    wreg     unsigned char 
  3861 ;;  mask            1   11[BANK0 ] unsigned char 
  3862 ;; Auto vars:     Size  Location     Type
  3863 ;;  addr            1   13[BANK0 ] unsigned char 
  3864 ;; Return value:  Size  Location     Type
  3865 ;;		None               void
  3866 ;; Registers used:
  3867 ;;		wreg, status,2, status,0, btemp+1, pclath, cstack
  3868 ;; Tracked objects:
  3869 ;;		On entry : 0/0
  3870 ;;		On exit  : 0/0
  3871 ;;		Unchanged: 0/0
  3872 ;; Data sizes:     COMMON   BANK0   BANK1   BANK2
  3873 ;;      Params:         0       1       0       0
  3874 ;;      Locals:         0       1       0       0
  3875 ;;      Temps:          0       1       0       0
  3876 ;;      Totals:         0       3       0       0
  3877 ;;Total ram usage:        3 bytes
  3878 ;; Hardware stack levels used:    1
  3879 ;; Hardware stack levels required when called:    4
  3880 ;; This function calls:
  3881 ;;		_MFRC522_Rd
  3882 ;;		_MFRC522_Wr
  3883 ;; This function is called by:
  3884 ;;		_MFRC522_AntennaOn
  3885 ;;		_MFRC522_ToCard
  3886 ;;		_MFRC522_CRC
  3887 ;; This function uses a non-reentrant model
  3888 ;;
  3889                           
  3890                           
  3891                           ;psect for function _MFRC522_Set_Bit
  3892  0771                     _MFRC522_Set_Bit:	
  3893                           
  3894                           ;incstack = 0
  3895                           ; Regs used in _MFRC522_Set_Bit: [wreg+status,2+status,0+btemp+1+pclath+cstack]
  3896                           ;MFRC522_Set_Bit@addr stored from wreg
  3897  0771  1283               	bcf	3,5	;RP0=0, select bank0
  3898  0772  1303               	bcf	3,6	;RP1=0, select bank0
  3899  0773  00AD               	movwf	MFRC522_Set_Bit@addr
  3900                           
  3901                           ;main.c: 146: MFRC522_Wr( addr, MFRC522_Rd( addr ) | mask );
  3902  0774  082D               	movf	MFRC522_Set_Bit@addr,w
  3903  0775  2708               	fcall	_MFRC522_Rd
  3904  0776  1283               	bcf	3,5	;RP0=0, select bank0
  3905  0777  1303               	bcf	3,6	;RP1=0, select bank0
  3906  0778  042B               	iorwf	MFRC522_Set_Bit@mask,w
  3907  0779  00AC               	movwf	??_MFRC522_Set_Bit
  3908  077A  082C               	movf	??_MFRC522_Set_Bit,w
  3909  077B  00A8               	movwf	MFRC522_Wr@value
  3910  077C  082D               	movf	MFRC522_Set_Bit@addr,w
  3911  077D  2740               	fcall	_MFRC522_Wr
  3912  077E  0008               	return
  3913  077F                     __end_of_MFRC522_Set_Bit:	
  3914                           
  3915                           	psect	text23
  3916  0740                     __ptext23:	
  3917 ;; *************** function _MFRC522_Wr *****************
  3918 ;; Defined at:
  3919 ;;		line 124 in file "main.c"
  3920 ;; Parameters:    Size  Location     Type
  3921 ;;  addr            1    wreg     unsigned char 
  3922 ;;  value           1    8[BANK0 ] unsigned char 
  3923 ;; Auto vars:     Size  Location     Type
  3924 ;;  addr            1   10[BANK0 ] unsigned char 
  3925 ;; Return value:  Size  Location     Type
  3926 ;;		None               void
  3927 ;; Registers used:
  3928 ;;		wreg, status,2, status,0, btemp+1, pclath, cstack
  3929 ;; Tracked objects:
  3930 ;;		On entry : 0/0
  3931 ;;		On exit  : 0/0
  3932 ;;		Unchanged: 0/0
  3933 ;; Data sizes:     COMMON   BANK0   BANK1   BANK2
  3934 ;;      Params:         0       1       0       0
  3935 ;;      Locals:         0       1       0       0
  3936 ;;      Temps:          0       1       0       0
  3937 ;;      Totals:         0       3       0       0
  3938 ;;Total ram usage:        3 bytes
  3939 ;; Hardware stack levels used:    1
  3940 ;; Hardware stack levels required when called:    3
  3941 ;; This function calls:
  3942 ;;		_SPI_transfer
  3943 ;; This function is called by:
  3944 ;;		_MFRC522_Clear_Bit
  3945 ;;		_MFRC522_Set_Bit
  3946 ;;		_MFRC522_Reset
  3947 ;;		_MFRC522_Init
  3948 ;;		_MFRC522_ToCard
  3949 ;;		_MFRC522_Request
  3950 ;;		_MFRC522_AntiColl
  3951 ;;		_MFRC522_CRC
  3952 ;; This function uses a non-reentrant model
  3953 ;;
  3954                           
  3955                           
  3956                           ;psect for function _MFRC522_Wr
  3957  0740                     _MFRC522_Wr:	
  3958                           
  3959                           ;incstack = 0
  3960                           ; Regs used in _MFRC522_Wr: [wreg+status,2+status,0+btemp+1+pclath+cstack]
  3961                           ;MFRC522_Wr@addr stored from wreg
  3962  0740  1283               	bcf	3,5	;RP0=0, select bank0
  3963  0741  1303               	bcf	3,6	;RP1=0, select bank0
  3964  0742  00AA               	movwf	MFRC522_Wr@addr
  3965                           
  3966                           ;main.c: 126: PORTAbits.RA1 = 0;
  3967  0743  1085               	bcf	5,1	;volatile
  3968                           
  3969                           ;main.c: 127: SPI_transfer( ( addr << 1 ) & 0x7E );
  3970  0744  082A               	movf	MFRC522_Wr@addr,w
  3971  0745  00A9               	movwf	??_MFRC522_Wr
  3972  0746  0729               	addwf	??_MFRC522_Wr,w
  3973  0747  397E               	andlw	126
  3974  0748  230C               	fcall	_SPI_transfer
  3975                           
  3976                           ;main.c: 128: SPI_transfer( value );
  3977  0749  1283               	bcf	3,5	;RP0=0, select bank0
  3978  074A  1303               	bcf	3,6	;RP1=0, select bank0
  3979  074B  0828               	movf	MFRC522_Wr@value,w
  3980  074C  230C               	fcall	_SPI_transfer
  3981                           
  3982                           ;main.c: 129: PORTAbits.RA1 = 1;
  3983  074D  1283               	bcf	3,5	;RP0=0, select bank0
  3984  074E  1303               	bcf	3,6	;RP1=0, select bank0
  3985  074F  1485               	bsf	5,1	;volatile
  3986  0750  0008               	return
  3987  0751                     __end_of_MFRC522_Wr:	
  3988                           
  3989                           	psect	text24
  3990  0708                     __ptext24:	
  3991 ;; *************** function _MFRC522_Rd *****************
  3992 ;; Defined at:
  3993 ;;		line 131 in file "main.c"
  3994 ;; Parameters:    Size  Location     Type
  3995 ;;  addr            1    wreg     unsigned char 
  3996 ;; Auto vars:     Size  Location     Type
  3997 ;;  addr            1    6[BANK0 ] unsigned char 
  3998 ;;  value           1    7[BANK0 ] unsigned char 
  3999 ;; Return value:  Size  Location     Type
  4000 ;;                  1    wreg      unsigned char 
  4001 ;; Registers used:
  4002 ;;		wreg, status,2, status,0, btemp+1, pclath, cstack
  4003 ;; Tracked objects:
  4004 ;;		On entry : 0/0
  4005 ;;		On exit  : 0/0
  4006 ;;		Unchanged: 0/0
  4007 ;; Data sizes:     COMMON   BANK0   BANK1   BANK2
  4008 ;;      Params:         0       0       0       0
  4009 ;;      Locals:         0       2       0       0
  4010 ;;      Temps:          1       0       0       0
  4011 ;;      Totals:         1       2       0       0
  4012 ;;Total ram usage:        3 bytes
  4013 ;; Hardware stack levels used:    1
  4014 ;; Hardware stack levels required when called:    3
  4015 ;; This function calls:
  4016 ;;		_SPI_transfer
  4017 ;; This function is called by:
  4018 ;;		_MFRC522_Clear_Bit
  4019 ;;		_MFRC522_Set_Bit
  4020 ;;		_MFRC522_ToCard
  4021 ;;		_MFRC522_CRC
  4022 ;;		_MFRC522_Auth
  4023 ;; This function uses a non-reentrant model
  4024 ;;
  4025                           
  4026                           
  4027                           ;psect for function _MFRC522_Rd
  4028  0708                     _MFRC522_Rd:	
  4029                           
  4030                           ;incstack = 0
  4031                           ; Regs used in _MFRC522_Rd: [wreg+status,2+status,0+btemp+1+pclath+cstack]
  4032                           ;MFRC522_Rd@addr stored from wreg
  4033  0708  1283               	bcf	3,5	;RP0=0, select bank0
  4034  0709  1303               	bcf	3,6	;RP1=0, select bank0
  4035  070A  00A6               	movwf	MFRC522_Rd@addr
  4036                           
  4037                           ;main.c: 133: char value;
  4038                           ;main.c: 134: PORTAbits.RA1 = 0;
  4039  070B  1085               	bcf	5,1	;volatile
  4040                           
  4041                           ;main.c: 135: SPI_transfer( (( addr << 1 ) & 0x7E) | 0x80 );
  4042  070C  0826               	movf	MFRC522_Rd@addr,w
  4043  070D  00F6               	movwf	??_MFRC522_Rd
  4044  070E  0776               	addwf	??_MFRC522_Rd,w
  4045  070F  397E               	andlw	126
  4046  0710  3880               	iorlw	128
  4047  0711  230C               	fcall	_SPI_transfer
  4048                           
  4049                           ;main.c: 136: value = SPI_transfer( 0x00 );
  4050  0712  3000               	movlw	0
  4051  0713  230C               	fcall	_SPI_transfer
  4052  0714  00F6               	movwf	??_MFRC522_Rd
  4053  0715  0876               	movf	??_MFRC522_Rd,w
  4054  0716  1283               	bcf	3,5	;RP0=0, select bank0
  4055  0717  1303               	bcf	3,6	;RP1=0, select bank0
  4056  0718  00A7               	movwf	MFRC522_Rd@value
  4057                           
  4058                           ;main.c: 137: PORTAbits.RA1 = 1;
  4059  0719  1485               	bsf	5,1	;volatile
  4060                           
  4061                           ;main.c: 138: return value;
  4062  071A  0827               	movf	MFRC522_Rd@value,w
  4063  071B  0008               	return
  4064  071C                     __end_of_MFRC522_Rd:	
  4065                           
  4066                           	psect	text25
  4067  030C                     __ptext25:	
  4068 ;; *************** function _SPI_transfer *****************
  4069 ;; Defined at:
  4070 ;;		line 43 in file "SPI.c"
  4071 ;; Parameters:    Size  Location     Type
  4072 ;;  data            1    wreg     unsigned char 
  4073 ;; Auto vars:     Size  Location     Type
  4074 ;;  data            1    0[BANK0 ] unsigned char 
  4075 ;;  i               2    3[BANK0 ] int 
  4076 ;;  i               2    1[BANK0 ] int 
  4077 ;;  byte            1    5[BANK0 ] unsigned char 
  4078 ;; Return value:  Size  Location     Type
  4079 ;;                  1    wreg      unsigned char 
  4080 ;; Registers used:
  4081 ;;		wreg, status,2, status,0, btemp+1
  4082 ;; Tracked objects:
  4083 ;;		On entry : 0/0
  4084 ;;		On exit  : 0/0
  4085 ;;		Unchanged: 0/0
  4086 ;; Data sizes:     COMMON   BANK0   BANK1   BANK2
  4087 ;;      Params:         0       0       0       0
  4088 ;;      Locals:         0       6       0       0
  4089 ;;      Temps:          1       0       0       0
  4090 ;;      Totals:         1       6       0       0
  4091 ;;Total ram usage:        7 bytes
  4092 ;; Hardware stack levels used:    1
  4093 ;; Hardware stack levels required when called:    2
  4094 ;; This function calls:
  4095 ;;		Nothing
  4096 ;; This function is called by:
  4097 ;;		_MFRC522_Wr
  4098 ;;		_MFRC522_Rd
  4099 ;; This function uses a non-reentrant model
  4100 ;;
  4101                           
  4102                           
  4103                           ;psect for function _SPI_transfer
  4104  030C                     _SPI_transfer:	
  4105                           
  4106                           ;incstack = 0
  4107                           ; Regs used in _SPI_transfer: [wreg+status,2+status,0+btemp+1]
  4108                           ;SPI_transfer@data stored from wreg
  4109  030C  1283               	bcf	3,5	;RP0=0, select bank0
  4110  030D  1303               	bcf	3,6	;RP1=0, select bank0
  4111  030E  00A0               	movwf	SPI_transfer@data
  4112                           
  4113                           ;SPI.c: 45: unsigned char byte;
  4114                           ;SPI.c: 46: byte = data;
  4115  030F  0820               	movf	SPI_transfer@data,w
  4116  0310  00F5               	movwf	??_SPI_transfer
  4117  0311  0875               	movf	??_SPI_transfer,w
  4118  0312  00A5               	movwf	SPI_transfer@byte
  4119                           
  4120                           ;SPI.c: 47: if(_mode==1 || _mode==3)
  4121  0313  086E               	movf	__mode,w
  4122  0314  3A01               	xorlw	1
  4123  0315  1903               	skipnz
  4124  0316  2B1B               	goto	l2149
  4125  0317  086E               	movf	__mode,w
  4126  0318  3A03               	xorlw	3
  4127  0319  1D03               	skipz
  4128  031A  2B51               	goto	l2175
  4129  031B                     l2149:	
  4130                           
  4131                           ;SPI.c: 48: {
  4132                           ;SPI.c: 49: for(int i=0;i<8;i++)
  4133  031B  01A1               	clrf	SPI_transfer@i
  4134  031C  01A2               	clrf	SPI_transfer@i+1
  4135  031D                     L7:	
  4136  031D  0822               	movf	SPI_transfer@i+1,w
  4137  031E  3A80               	xorlw	128
  4138  031F  00FF               	movwf	127
  4139  0320  3080               	movlw	128
  4140  0321  027F               	subwf	127,w
  4141  0322  1D03               	skipz
  4142  0323  2B26               	goto	u2085
  4143  0324  3008               	movlw	8
  4144  0325  0221               	subwf	SPI_transfer@i,w
  4145  0326                     u2085:	
  4146  0326  1803               	btfsc	3,0
  4147  0327  2B93               	goto	l2201
  4148                           
  4149                           ;SPI.c: 50: {
  4150                           ;SPI.c: 51: if(byte & 0x80) PORTB |= (1<<6);
  4151  0328  1283               	bcf	3,5	;RP0=0, select bank0
  4152  0329  1303               	bcf	3,6	;RP1=0, select bank0
  4153  032A  1FA5               	btfss	SPI_transfer@byte,7
  4154  032B  2B2E               	goto	l2157
  4155  032C  1706               	bsf	6,6	;volatile
  4156  032D  2B32               	goto	l2159
  4157  032E                     l2157:	
  4158                           
  4159                           ;SPI.c: 52: else PORTB &= ~(1<<6);
  4160  032E  30BF               	movlw	191
  4161  032F  00F5               	movwf	??_SPI_transfer
  4162  0330  0875               	movf	??_SPI_transfer,w
  4163  0331  0586               	andwf	6,f	;volatile
  4164  0332                     l2159:	
  4165                           
  4166                           ;SPI.c: 53: _delay((unsigned long)((10)*(16000000/4000000.0)));
  4167  0332  300D               	movlw	13
  4168  0333  00F5               	movwf	??_SPI_transfer
  4169  0334                     u3087:	
  4170  0334  0BF5               	decfsz	??_SPI_transfer,f
  4171  0335  2B34               	goto	u3087
  4172                           
  4173                           ;SPI.c: 54: PORTB ^= (1<<7);
  4174  0336  3080               	movlw	128
  4175  0337  00F5               	movwf	??_SPI_transfer
  4176  0338  0875               	movf	??_SPI_transfer,w
  4177  0339  1283               	bcf	3,5	;RP0=0, select bank0
  4178  033A  1303               	bcf	3,6	;RP1=0, select bank0
  4179  033B  0686               	xorwf	6,f	;volatile
  4180                           
  4181                           ;SPI.c: 55: byte <<= 1;
  4182  033C  1003               	clrc
  4183  033D  0DA5               	rlf	SPI_transfer@byte,f
  4184                           
  4185                           ;SPI.c: 56: if((PORTB & (1<<5))) byte |= 0x01;
  4186  033E  1A86               	btfsc	6,5	;volatile
  4187  033F  1425               	bsf	SPI_transfer@byte,0
  4188                           
  4189                           ;SPI.c: 57: _delay((unsigned long)((10)*(16000000/4000000.0)));
  4190  0340  300D               	movlw	13
  4191  0341  00F5               	movwf	??_SPI_transfer
  4192  0342                     u3097:	
  4193  0342  0BF5               	decfsz	??_SPI_transfer,f
  4194  0343  2B42               	goto	u3097
  4195                           
  4196                           ;SPI.c: 58: PORTB ^= (1<<7);
  4197  0344  3080               	movlw	128
  4198  0345  00F5               	movwf	??_SPI_transfer
  4199  0346  0875               	movf	??_SPI_transfer,w
  4200  0347  1283               	bcf	3,5	;RP0=0, select bank0
  4201  0348  1303               	bcf	3,6	;RP1=0, select bank0
  4202  0349  0686               	xorwf	6,f	;volatile
  4203  034A  3001               	movlw	1
  4204  034B  07A1               	addwf	SPI_transfer@i,f
  4205  034C  1803               	skipnc
  4206  034D  0AA2               	incf	SPI_transfer@i+1,f
  4207  034E  3000               	movlw	0
  4208  034F  07A2               	addwf	SPI_transfer@i+1,f
  4209  0350  2B1D               	goto	L7
  4210  0351                     l2175:	
  4211                           ;SPI.c: 59: }
  4212                           ;SPI.c: 60: }
  4213                           
  4214                           
  4215                           ;SPI.c: 61: else
  4216                           ;SPI.c: 62: {
  4217                           ;SPI.c: 63: for(int i=0;i<8;i++)
  4218  0351  1283               	bcf	3,5	;RP0=0, select bank0
  4219  0352  1303               	bcf	3,6	;RP1=0, select bank0
  4220  0353  01A3               	clrf	SPI_transfer@i_224
  4221  0354  01A4               	clrf	SPI_transfer@i_224+1
  4222  0355  0824               	movf	SPI_transfer@i_224+1,w
  4223  0356  3A80               	xorlw	128
  4224  0357  00FF               	movwf	127
  4225  0358  3080               	movlw	128
  4226  0359  027F               	subwf	127,w
  4227  035A  1D03               	skipz
  4228  035B  2B5E               	goto	u2125
  4229  035C  3008               	movlw	8
  4230  035D  0223               	subwf	SPI_transfer@i_224,w
  4231  035E                     u2125:	
  4232  035E  1803               	btfsc	3,0
  4233  035F  2B93               	goto	l2201
  4234  0360                     l81:	
  4235                           
  4236                           ;SPI.c: 64: {
  4237                           ;SPI.c: 65: if(byte & 0x80)PORTB |= (1<<6);
  4238  0360  1283               	bcf	3,5	;RP0=0, select bank0
  4239  0361  1303               	bcf	3,6	;RP1=0, select bank0
  4240  0362  1FA5               	btfss	SPI_transfer@byte,7
  4241  0363  2B66               	goto	l2183
  4242  0364  1706               	bsf	6,6	;volatile
  4243  0365  2B6A               	goto	l2185
  4244  0366                     l2183:	
  4245                           
  4246                           ;SPI.c: 66: else PORTB &= ~(1<<6);
  4247  0366  30BF               	movlw	191
  4248  0367  00F5               	movwf	??_SPI_transfer
  4249  0368  0875               	movf	??_SPI_transfer,w
  4250  0369  0586               	andwf	6,f	;volatile
  4251  036A                     l2185:	
  4252                           
  4253                           ;SPI.c: 67: byte <<= 1;
  4254  036A  1003               	clrc
  4255  036B  0DA5               	rlf	SPI_transfer@byte,f
  4256                           
  4257                           ;SPI.c: 68: _delay((unsigned long)((10)*(16000000/4000000.0)));
  4258  036C  300D               	movlw	13
  4259  036D  00F5               	movwf	??_SPI_transfer
  4260  036E                     u3107:	
  4261  036E  0BF5               	decfsz	??_SPI_transfer,f
  4262  036F  2B6E               	goto	u3107
  4263                           
  4264                           ;SPI.c: 69: PORTB ^= (1<<7);
  4265  0370  3080               	movlw	128
  4266  0371  00F5               	movwf	??_SPI_transfer
  4267  0372  0875               	movf	??_SPI_transfer,w
  4268  0373  1283               	bcf	3,5	;RP0=0, select bank0
  4269  0374  1303               	bcf	3,6	;RP1=0, select bank0
  4270  0375  0686               	xorwf	6,f	;volatile
  4271                           
  4272                           ;SPI.c: 70: if((PORTB & (1<<5))) byte |= 0x01;
  4273  0376  1A86               	btfsc	6,5	;volatile
  4274  0377  1425               	bsf	SPI_transfer@byte,0
  4275                           
  4276                           ;SPI.c: 71: _delay((unsigned long)((10)*(16000000/4000000.0)));
  4277  0378  300D               	movlw	13
  4278  0379  00F5               	movwf	??_SPI_transfer
  4279  037A                     u3117:	
  4280  037A  0BF5               	decfsz	??_SPI_transfer,f
  4281  037B  2B7A               	goto	u3117
  4282                           
  4283                           ;SPI.c: 72: PORTB ^= (1<<7);
  4284  037C  3080               	movlw	128
  4285  037D  00F5               	movwf	??_SPI_transfer
  4286  037E  0875               	movf	??_SPI_transfer,w
  4287  037F  1283               	bcf	3,5	;RP0=0, select bank0
  4288  0380  1303               	bcf	3,6	;RP1=0, select bank0
  4289  0381  0686               	xorwf	6,f	;volatile
  4290  0382  3001               	movlw	1
  4291  0383  07A3               	addwf	SPI_transfer@i_224,f
  4292  0384  1803               	skipnc
  4293  0385  0AA4               	incf	SPI_transfer@i_224+1,f
  4294  0386  3000               	movlw	0
  4295  0387  07A4               	addwf	SPI_transfer@i_224+1,f
  4296  0388  0824               	movf	SPI_transfer@i_224+1,w
  4297  0389  3A80               	xorlw	128
  4298  038A  00FF               	movwf	127
  4299  038B  3080               	movlw	128
  4300  038C  027F               	subwf	127,w
  4301  038D  1D03               	skipz
  4302  038E  2B91               	goto	u2155
  4303  038F  3008               	movlw	8
  4304  0390  0223               	subwf	SPI_transfer@i_224,w
  4305  0391                     u2155:	
  4306  0391  1C03               	skipc
  4307  0392  2B60               	goto	l81
  4308  0393                     l2201:	
  4309                           
  4310                           ;SPI.c: 73: }
  4311                           ;SPI.c: 74: }
  4312                           ;SPI.c: 75: return byte;
  4313  0393  1283               	bcf	3,5	;RP0=0, select bank0
  4314  0394  1303               	bcf	3,6	;RP1=0, select bank0
  4315  0395  0825               	movf	SPI_transfer@byte,w
  4316  0396  0008               	return
  4317  0397                     __end_of_SPI_transfer:	
  4318                           
  4319                           	psect	text26
  4320  077F                     __ptext26:	
  4321 ;; *************** function __ISR *****************
  4322 ;; Defined at:
  4323 ;;		line 551 in file "main.c"
  4324 ;; Parameters:    Size  Location     Type
  4325 ;;		None
  4326 ;; Auto vars:     Size  Location     Type
  4327 ;;		None
  4328 ;; Return value:  Size  Location     Type
  4329 ;;		None               void
  4330 ;; Registers used:
  4331 ;;		wreg, fsr0l, fsr0h, status,2, status,0, pclath, cstack
  4332 ;; Tracked objects:
  4333 ;;		On entry : 0/0
  4334 ;;		On exit  : 0/0
  4335 ;;		Unchanged: 0/0
  4336 ;; Data sizes:     COMMON   BANK0   BANK1   BANK2
  4337 ;;      Params:         0       0       0       0
  4338 ;;      Locals:         0       0       0       0
  4339 ;;      Temps:          4       0       0       0
  4340 ;;      Totals:         4       0       0       0
  4341 ;;Total ram usage:        4 bytes
  4342 ;; Hardware stack levels used:    1
  4343 ;; Hardware stack levels required when called:    1
  4344 ;; This function calls:
  4345 ;;		__ISR_UART
  4346 ;; This function is called by:
  4347 ;;		Interrupt level 1
  4348 ;; This function uses a non-reentrant model
  4349 ;;
  4350                           
  4351                           
  4352                           ;psect for function __ISR
  4353  077F                     __ISR:	
  4354                           
  4355                           ;main.c: 553: _ISR_UART();
  4356  077F  271C               	fcall	__ISR_UART
  4357  0780  0874               	movf	??__ISR+3,w
  4358  0781  1283               	bcf	3,5	;RP0=0, select bank0
  4359  0782  1303               	bcf	3,6	;RP1=0, select bank0
  4360  0783  00FF               	movwf	127
  4361  0784  0873               	movf	??__ISR+2,w
  4362  0785  008A               	movwf	10
  4363  0786  0872               	movf	??__ISR+1,w
  4364  0787  0084               	movwf	4
  4365  0788  0E71               	swapf	??__ISR^(0+-128),w
  4366  0789  0083               	movwf	3
  4367  078A  0EFE               	swapf	126,f
  4368  078B  0E7E               	swapf	126,w
  4369  078C  0009               	retfie
  4370  078D                     __end_of__ISR:	
  4371                           
  4372                           	psect	intentry
  4373  0004                     __pintentry:	
  4374                           ;incstack = 0
  4375                           ; Regs used in __ISR: [wreg-fsr0h+status,2+status,0+pclath+cstack]
  4376                           
  4377  0004                     interrupt_function:	
  4378  007E                     saved_w	set	btemp
  4379  0004  00FE               	movwf	btemp
  4380  0005  0E03               	swapf	3,w
  4381  0006  00F1               	movwf	??__ISR
  4382  0007  0804               	movf	4,w
  4383  0008  00F2               	movwf	??__ISR+1
  4384  0009  080A               	movf	10,w
  4385  000A  00F3               	movwf	??__ISR+2
  4386  000B  1283               	bcf	3,5	;RP0=0, select bank0
  4387  000C  1303               	bcf	3,6	;RP1=0, select bank0
  4388  000D  087F               	movf	btemp+1,w
  4389  000E  00F4               	movwf	??__ISR+3
  4390  000F  2F7F               	ljmp	__ISR
  4391                           
  4392                           	psect	text27
  4393  071C                     __ptext27:	
  4394 ;; *************** function __ISR_UART *****************
  4395 ;; Defined at:
  4396 ;;		line 51 in file "UART.c"
  4397 ;; Parameters:    Size  Location     Type
  4398 ;;		None
  4399 ;; Auto vars:     Size  Location     Type
  4400 ;;		None
  4401 ;; Return value:  Size  Location     Type
  4402 ;;		None               void
  4403 ;; Registers used:
  4404 ;;		wreg, fsr0l, fsr0h, status,2, status,0
  4405 ;; Tracked objects:
  4406 ;;		On entry : 0/0
  4407 ;;		On exit  : 0/0
  4408 ;;		Unchanged: 0/0
  4409 ;; Data sizes:     COMMON   BANK0   BANK1   BANK2
  4410 ;;      Params:         0       0       0       0
  4411 ;;      Locals:         0       0       0       0
  4412 ;;      Temps:          1       0       0       0
  4413 ;;      Totals:         1       0       0       0
  4414 ;;Total ram usage:        1 bytes
  4415 ;; Hardware stack levels used:    1
  4416 ;; This function calls:
  4417 ;;		Nothing
  4418 ;; This function is called by:
  4419 ;;		__ISR
  4420 ;; This function uses a non-reentrant model
  4421 ;;
  4422                           
  4423                           
  4424                           ;psect for function __ISR_UART
  4425  071C                     __ISR_UART:	
  4426                           
  4427                           ;UART.c: 53: if(RCIF)
  4428                           
  4429                           ;incstack = 0
  4430                           ; Regs used in __ISR_UART: [wreg-fsr0h+status,2+status,0]
  4431  071C  1283               	bcf	3,5	;RP0=0, select bank0
  4432  071D  1303               	bcf	3,6	;RP1=0, select bank0
  4433  071E  1E8C               	btfss	12,5	;volatile
  4434  071F  0008               	return
  4435                           
  4436                           ;UART.c: 54: {
  4437                           ;UART.c: 55: buffer[count] = RCREG;
  4438  0720  081A               	movf	26,w	;volatile
  4439  0721  00F0               	movwf	??__ISR_UART
  4440  0722  0877               	movf	_count,w
  4441  0723  3E5E               	addlw	_buffer& (0+255)
  4442  0724  0084               	movwf	4
  4443  0725  0870               	movf	??__ISR_UART,w
  4444  0726  1383               	bcf	3,7	;select IRP bank0
  4445  0727  0080               	movwf	0
  4446                           
  4447                           ;UART.c: 56: count++;
  4448  0728  3001               	movlw	1
  4449  0729  07F7               	addwf	_count,f
  4450  072A  1803               	skipnc
  4451  072B  0AF8               	incf	_count+1,f
  4452  072C  3000               	movlw	0
  4453  072D  07F8               	addwf	_count+1,f
  4454  072E  0008               	return
  4455  072F                     __end_of__ISR_UART:	
  4456  007E                     btemp	set	126	;btemp
  4457  007E                     wtemp	set	126
  4458  007E                     wtemp0	set	126
  4459  0080                     wtemp1	set	128
  4460  0082                     wtemp2	set	130
  4461  0084                     wtemp3	set	132
  4462  0086                     wtemp4	set	134
  4463  0088                     wtemp5	set	136
  4464  007F                     wtemp6	set	127
  4465  007E                     ttemp	set	126
  4466  007E                     ttemp0	set	126
  4467  0081                     ttemp1	set	129
  4468  0084                     ttemp2	set	132
  4469  0087                     ttemp3	set	135
  4470  007F                     ttemp4	set	127
  4471  007E                     ltemp	set	126
  4472  007E                     ltemp0	set	126
  4473  0082                     ltemp1	set	130
  4474  0086                     ltemp2	set	134
  4475  0080                     ltemp3	set	128


Data Sizes:
    Strings     107
    Constant    18
    Data        0
    BSS         18
    Persistent  1
    Stack       0

Auto Spaces:
    Space          Size  Autos    Used
    COMMON           14      7       9
    BANK0            80     62      79
    BANK1            80      0       0
    BANK2            48      0       0

Pointer List with Targets:

    printf@f	PTR const unsigned char  size(1) Largest target is 22
		 -> STR_7(CODE[20]), STR_6(CODE[22]), STR_5(CODE[3]), STR_4(CODE[4]), 
		 -> STR_3(CODE[9]), STR_2(CODE[18]), STR_1(CODE[17]), 

    printf@ap	PTR void [1] size(1) Largest target is 2
		 -> ?_printf(BANK0[2]), 

    S393$_cp	PTR const unsigned char  size(1) Largest target is 0

    _val._str._cp	PTR const unsigned char  size(1) Largest target is 0

    record_card@card	PTR unsigned char  size(1) Largest target is 6
		 -> main@UID(BANK0[6]), 

    compare_card@card	PTR unsigned char  size(1) Largest target is 6
		 -> main@UID(BANK0[6]), 

    MFRC522_ReadCardSerial@str	PTR unsigned char  size(1) Largest target is 6
		 -> main@UID(BANK0[6]), 

    MFRC522_isCard@TagType	PTR unsigned char  size(1) Largest target is 1
		 -> main@TagType(BANK0[1]), 

    MFRC522_AntiColl@serNum	PTR unsigned char  size(1) Largest target is 6
		 -> main@UID(BANK0[6]), 

    MFRC522_Request@TagType	PTR unsigned char  size(1) Largest target is 1
		 -> main@TagType(BANK0[1]), 

    MFRC522_ToCard@backData	PTR unsigned char  size(1) Largest target is 18
		 -> main@TagType(BANK0[1]), main@UID(BANK0[6]), MFRC522_Write@buff(BANK0[18]), MFRC522_Auth@buff(COMMON[12]), 
		 -> MFRC522_Halt@buff(COMMON[4]), MFRC522_SelectTag@buffer(COMMON[9]), 

    MFRC522_ToCard@backLen	PTR unsigned int  size(1) Largest target is 2
		 -> MFRC522_AntiColl@unLen(BANK0[2]), MFRC522_Read@unLen(COMMON[2]), MFRC522_Write@recvBits(COMMON[2]), MFRC522_Auth@recvBits(COMMON[2]), 
		 -> MFRC522_Halt@unLen(COMMON[2]), MFRC522_SelectTag@recvBits(COMMON[2]), MFRC522_Request@backBits(BANK0[2]), 

    MFRC522_ToCard@sendData	PTR unsigned char  size(1) Largest target is 18
		 -> main@TagType(BANK0[1]), main@UID(BANK0[6]), MFRC522_Write@buff(BANK0[18]), MFRC522_Auth@buff(COMMON[12]), 
		 -> MFRC522_Halt@buff(COMMON[4]), MFRC522_SelectTag@buffer(COMMON[9]), 


Critical Paths under _main in COMMON

    _main->_SPI_init
    _main->_UART_available
    _record_card->_eeprom_read
    _record_card->_eeprom_write
    _printf->___lwmod
    ___lwmod->___lwdiv
    _compare_card->_eeprom_read
    _MFRC522_ToCard->_MFRC522_Rd
    _MFRC522_Clear_Bit->_MFRC522_Rd
    _MFRC522_Set_Bit->_MFRC522_Rd
    _MFRC522_Wr->_MFRC522_Rd
    _MFRC522_Rd->_SPI_transfer

Critical Paths under __ISR in COMMON

    __ISR->__ISR_UART

Critical Paths under _main in BANK0

    _main->_MFRC522_ReadCardSerial
    _record_card->_eeprom_write
    _printf->___lwmod
    ___lwmod->___lwdiv
    _MFRC522_isCard->_MFRC522_Request
    _MFRC522_Request->_MFRC522_ToCard
    _MFRC522_ReadCardSerial->_MFRC522_AntiColl
    _MFRC522_AntiColl->_MFRC522_ToCard
    _MFRC522_ToCard->_MFRC522_Clear_Bit
    _MFRC522_Clear_Bit->_MFRC522_Wr
    _MFRC522_Init->_MFRC522_AntennaOn
    _MFRC522_Reset->_MFRC522_Wr
    _MFRC522_AntennaOn->_MFRC522_Set_Bit
    _MFRC522_Set_Bit->_MFRC522_Wr
    _MFRC522_Wr->_MFRC522_Rd
    _MFRC522_Rd->_SPI_transfer

Critical Paths under __ISR in BANK0

    None.

Critical Paths under _main in BANK1

    None.

Critical Paths under __ISR in BANK1

    None.

Critical Paths under _main in BANK2

    None.

Critical Paths under __ISR in BANK2

    None.

Call Graph Tables:

 ---------------------------------------------------------------------------------
 (Depth) Function   	        Calls       Base Space   Used Autos Params    Refs
 ---------------------------------------------------------------------------------
 (0) _main                                                16    16      0   33763
                                             47 BANK0     15    15      0
                       _MFRC522_Init
             _MFRC522_ReadCardSerial
                     _MFRC522_isCard
                           _SPI_init
                     _UART_available
                          _UART_init
                     _UART_read_byte
                       _compare_card
                             _printf
                        _record_card
 ---------------------------------------------------------------------------------
 (1) _record_card                                          3     3      0     885
                                              1 BANK0      3     3      0
                        _eeprom_read
                       _eeprom_write
 ---------------------------------------------------------------------------------
 (2) _eeprom_write                                         3     2      1     517
                                              5 COMMON     2     1      1
                                              0 BANK0      1     1      0
 ---------------------------------------------------------------------------------
 (1) _printf                                              15    13      2    1856
                                             12 BANK0     15    13      2
                            ___lwdiv
                            ___lwmod
                              _putch
 ---------------------------------------------------------------------------------
 (2) _putch                                                1     1      0      22
                                              5 COMMON     1     1      0
 ---------------------------------------------------------------------------------
 (2) ___lwmod                                              6     2      4     362
                                              6 COMMON     1     1      0
                                              7 BANK0      5     1      4
                            ___lwdiv (ARG)
 ---------------------------------------------------------------------------------
 (2) ___lwdiv                                              8     4      4     501
                                              5 COMMON     1     1      0
                                              0 BANK0      7     3      4
 ---------------------------------------------------------------------------------
 (1) _compare_card                                         4     4      0     433
                                              0 BANK0      4     4      0
                        _eeprom_read
 ---------------------------------------------------------------------------------
 (2) _eeprom_read                                          2     2      0      22
                                              5 COMMON     2     2      0
 ---------------------------------------------------------------------------------
 (1) _UART_read_byte                                       4     4      0     133
                                              5 COMMON     1     1      0
                                              0 BANK0      3     3      0
 ---------------------------------------------------------------------------------
 (1) _UART_init                                            0     0      0       0
 ---------------------------------------------------------------------------------
 (1) _UART_available                                       2     0      2       0
                                              5 COMMON     2     0      2
 ---------------------------------------------------------------------------------
 (1) _SPI_init                                             2     2      0      66
                                              5 COMMON     2     2      0
 ---------------------------------------------------------------------------------
 (1) _MFRC522_isCard                                       2     2      0   11185
                                             42 BANK0      2     2      0
                    _MFRC522_Request
 ---------------------------------------------------------------------------------
 (2) _MFRC522_Request                                      9     8      1   11124
                                             33 BANK0      9     8      1
                     _MFRC522_ToCard
                         _MFRC522_Wr
 ---------------------------------------------------------------------------------
 (1) _MFRC522_ReadCardSerial                               3     3      0   13712
                                             44 BANK0      3     3      0
                   _MFRC522_AntiColl
 ---------------------------------------------------------------------------------
 (2) _MFRC522_AntiColl                                    11    11      0   13586
                                             33 BANK0     11    11      0
                  _MFRC522_Clear_Bit
                     _MFRC522_ToCard
                         _MFRC522_Wr
 ---------------------------------------------------------------------------------
 (3) _MFRC522_ToCard                                      18    14      4    9351
                                             15 BANK0     18    14      4
                  _MFRC522_Clear_Bit
                         _MFRC522_Rd
                    _MFRC522_Set_Bit
                         _MFRC522_Wr
 ---------------------------------------------------------------------------------
 (4) _MFRC522_Clear_Bit                                    4     3      1    2330
                                             11 BANK0      4     3      1
                         _MFRC522_Rd
                         _MFRC522_Wr
 ---------------------------------------------------------------------------------
 (1) _MFRC522_Init                                         1     1      0    5019
                                             15 BANK0      1     1      0
                  _MFRC522_AntennaOn
                      _MFRC522_Reset
                         _MFRC522_Wr
 ---------------------------------------------------------------------------------
 (2) _MFRC522_Reset                                        1     1      0    1442
                                             11 BANK0      1     1      0
                         _MFRC522_Wr
 ---------------------------------------------------------------------------------
 (2) _MFRC522_AntennaOn                                    1     1      0    2135
                                             14 BANK0      1     1      0
                    _MFRC522_Set_Bit
 ---------------------------------------------------------------------------------
 (4) _MFRC522_Set_Bit                                      3     2      1    2135
                                             11 BANK0      3     2      1
                         _MFRC522_Rd
                         _MFRC522_Wr
 ---------------------------------------------------------------------------------
 (3) _MFRC522_Wr                                           3     2      1    1442
                                              8 BANK0      3     2      1
                         _MFRC522_Rd (ARG)
                       _SPI_transfer
 ---------------------------------------------------------------------------------
 (5) _MFRC522_Rd                                           3     3      0     340
                                              6 COMMON     1     1      0
                                              6 BANK0      2     2      0
                       _SPI_transfer
 ---------------------------------------------------------------------------------
 (4) _SPI_transfer                                         7     7      0     275
                                              5 COMMON     1     1      0
                                              0 BANK0      6     6      0
 ---------------------------------------------------------------------------------
 Estimated maximum stack depth 5
 ---------------------------------------------------------------------------------
 (Depth) Function   	        Calls       Base Space   Used Autos Params    Refs
 ---------------------------------------------------------------------------------
 (7) __ISR                                                 4     4      0       0
                                              1 COMMON     4     4      0
                          __ISR_UART
 ---------------------------------------------------------------------------------
 (8) __ISR_UART                                            1     1      0       0
                                              0 COMMON     1     1      0
 ---------------------------------------------------------------------------------
 Estimated maximum stack depth 8
 ---------------------------------------------------------------------------------

 Call Graph Graphs:

 _main (ROOT)
   _MFRC522_Init
     _MFRC522_AntennaOn
       _MFRC522_Set_Bit
         _MFRC522_Rd
           _SPI_transfer
         _MFRC522_Wr
           _MFRC522_Rd (ARG)
             _SPI_transfer
           _SPI_transfer (ARG)
     _MFRC522_Reset
       _MFRC522_Wr
         _MFRC522_Rd (ARG)
           _SPI_transfer
         _SPI_transfer (ARG)
     _MFRC522_Wr
       _MFRC522_Rd (ARG)
         _SPI_transfer
       _SPI_transfer (ARG)
   _MFRC522_ReadCardSerial
     _MFRC522_AntiColl
       _MFRC522_Clear_Bit
         _MFRC522_Rd
           _SPI_transfer
         _MFRC522_Wr
           _MFRC522_Rd (ARG)
             _SPI_transfer
           _SPI_transfer (ARG)
       _MFRC522_ToCard
         _MFRC522_Clear_Bit
           _MFRC522_Rd
             _SPI_transfer
           _MFRC522_Wr
             _MFRC522_Rd (ARG)
               _SPI_transfer
             _SPI_transfer (ARG)
         _MFRC522_Rd
           _SPI_transfer
         _MFRC522_Set_Bit
           _MFRC522_Rd
             _SPI_transfer
           _MFRC522_Wr
             _MFRC522_Rd (ARG)
               _SPI_transfer
             _SPI_transfer (ARG)
         _MFRC522_Wr
           _MFRC522_Rd (ARG)
             _SPI_transfer
           _SPI_transfer (ARG)
       _MFRC522_Wr
         _MFRC522_Rd (ARG)
           _SPI_transfer
         _SPI_transfer (ARG)
   _MFRC522_isCard
     _MFRC522_Request
       _MFRC522_ToCard
         _MFRC522_Clear_Bit
           _MFRC522_Rd
             _SPI_transfer
           _MFRC522_Wr
             _MFRC522_Rd (ARG)
               _SPI_transfer
             _SPI_transfer (ARG)
         _MFRC522_Rd
           _SPI_transfer
         _MFRC522_Set_Bit
           _MFRC522_Rd
             _SPI_transfer
           _MFRC522_Wr
             _MFRC522_Rd (ARG)
               _SPI_transfer
             _SPI_transfer (ARG)
         _MFRC522_Wr
           _MFRC522_Rd (ARG)
             _SPI_transfer
           _SPI_transfer (ARG)
       _MFRC522_Wr
         _MFRC522_Rd (ARG)
           _SPI_transfer
         _SPI_transfer (ARG)
   _SPI_init
   _UART_available
   _UART_init
   _UART_read_byte
   _compare_card
     _eeprom_read
   _printf
     ___lwdiv
     ___lwmod
       ___lwdiv (ARG)
     _putch
   _record_card
     _eeprom_read
     _eeprom_write

 __ISR (ROOT)
   __ISR_UART

 Address spaces:
Name               Size   Autos  Total    Cost      Usage
BITCOMMON            E      0       0       0        0.0%
EEDATA              80      0       0       0        0.0%
NULL                 0      0       0       0        0.0%
CODE                 0      0       0       0        0.0%
COMMON               E      7       9       1       64.3%
BITSFR0              0      0       0       1        0.0%
SFR0                 0      0       0       1        0.0%
BITSFR1              0      0       0       2        0.0%
SFR1                 0      0       0       2        0.0%
STACK                0      0       0       2        0.0%
BANK0               50     3E      4F       3       98.8%
BITSFR3              0      0       0       4        0.0%
SFR3                 0      0       0       4        0.0%
ABS                  0      0      58       4        0.0%
BITBANK0            50      0       0       5        0.0%
BITSFR2              0      0       0       5        0.0%
SFR2                 0      0       0       5        0.0%
BITBANK1            50      0       0       6        0.0%
BANK1               50      0       0       7        0.0%
BITBANK2            30      0       0       8        0.0%
BANK2               30      0       0       9        0.0%
DATA                 0      0      58      10        0.0%


Microchip Technology PIC Macro Assembler V1.33 build 59893 
Symbol Table                                                                                   Mon Apr 13 17:42:54 2015

                              pc 0002                      __CFG_CP$OFF 0000                               l41 07A8  
                             l81 0360                               l67 06D3                               _RD 04E0  
                             _WR 04E1                               fsr 0004                      main@TagType 005D  
                            l300 06F4                              l212 04F4                              l141 0660  
                            l126 014D                              l232 024C                              l322 0698  
                            l270 0197                              l265 016F                              l195 04DE  
                            l275 01B3                              l287 0235                    ?_compare_card 0070  
                            _GIE 005F                     __CFG_CPD$OFF 0000                              fsr0 0004  
                            indf 0000                     __CFG_FOSC$HS 0000                   ??_MFRC522_Init 002F  
                   __CFG_LVP$OFF 0000            __size_of_SPI_transfer 008B                             l2201 0393  
                           l2301 0140                             l2303 0147                             l2231 0024  
                           l2233 002A                             l2321 065C                             l2411 05FF  
                           l2157 032E                             l2149 031B                             l2237 0033  
                           l2413 060D                             l2421 0626                             l2183 0366  
                           l2159 0332                             l2175 0351                             l2263 00A9  
                           l2255 008D                             l2247 005B                             l2239 003B  
                           l2351 04D2                             l2503 04F2                             l2185 036A  
                           l2257 0093                             l2249 007B                             l2345 04C0  
                           l2433 0670                             l2521 04F6                             l2417 061B  
                           l2601 021F                             l2283 00FE                             l2275 00C4  
                           l2435 0691                             l2523 052E                             l2603 0221  
                           l2293 011F                             l2605 0156                             l2519 0527  
                           l2551 0171                             l2535 0546                             l2289 0117  
                           l2299 0121                             l2395 05AD                             l2387 0589  
                           l2555 0176                             l2493 06F1                             l2477 075F  
                           l2389 0597                             l2557 018A                             l2549 016B  
                           l2399 05B8                             l2591 01DD                             l2593 0201  
                           l2761 02A5                             l2745 027F                             l2587 01CF  
                           l1789 06D7                             l2589 01D8                             l2781 02F0  
                           l2775 02CE                             l2787 02F9                             l2789 02FB  
                           STR_1 0465                             STR_2 0442                             STR_3 0476  
                           STR_4 047F                             STR_5 042B                             STR_6 0418  
                           STR_7 042E                             STR_8 0454                             u2125 035E  
                           u3015 02CC                             u3025 02EE                             u2155 0391  
                           u3107 036E                             u3117 037A                             u2085 0326  
                           u2165 0064                             u2415 0598                             u3047 0255  
                           u2425 05A4                             u3057 0265                             u2515 067A  
                           u2435 05AE                             u3067 029B                             u2285 012A  
                           u3077 0304                             u3087 0334                             u3097 0342  
                           u2465 0602                             u2705 01C8                             u2395 058C  
                           u2485 0613                             u2495 061C                             u2675 01AC  
                           u2955 024A                             _RCIF 0065                             u2965 027D  
                           _WREN 04E2                             _TXIF 0064                   ??_eeprom_write 0076  
                           __ISR 077F                             _main 0236            MFRC522_AntiColl@unLen 0047  
                           btemp 007E                             ltemp 007E                             start 0010  
                           ttemp 007E                             wtemp 007E                 _MFRC522_AntiColl 0483  
                  __CFG_MCLRE$ON 0000                   MFRC522_Rd@addr 0026                  ??_MFRC522_Reset 002B  
                          ?__ISR 0070                   MFRC522_Wr@addr 002A                   ??_compare_card 0020  
                          ?_main 0070          ?_MFRC522_ReadCardSerial 0070                            _EEADR 009B  
                  __CFG_WDTE$OFF 0000                            _CARRY 0018                  __end_of___lwdiv 05BF  
                __end_of___lwmod 062D                 SPI_transfer@data 0020                            _RCREG 001A  
               SPI_transfer@byte 0025                     _SPI_transfer 030C                            _SPBRG 0099  
                          _PORTB 0006                            _TRISB 0086                            _TXREG 0019  
            __size_of_MFRC522_Rd 0014              __size_of_MFRC522_Wr 0011                            __mode 006E  
             __size_of_UART_init 0011                  __end_of_dpowers 0410                            _count 0077  
         MFRC522_AntiColl@serNum 004B                            _putch 07A7                            main@i 0059  
                 __CFG_BOREN$OFF 0000                            pclath 000A                            ltemp0 007E  
               __end_of_SPI_init 06DD                            ltemp1 0082                            ltemp2 0086  
                          ltemp3 0080                _MFRC522_Clear_Bit 0761                            ttemp0 007E  
                          ttemp1 0081                            ttemp2 0084                            ttemp3 0087  
                          ttemp4 007F                            status 0003                            wtemp0 007E  
                          wtemp1 0080                            wtemp2 0082                            wtemp3 0084  
                          wtemp4 0086                            wtemp5 0088                            wtemp6 007F  
             ?_MFRC522_Clear_Bit 002B                _MFRC522_AntennaOn 0796                     __end_of__ISR 078D  
                __initialization 0011                     __end_of_main 030C               ?_MFRC522_AntennaOn 0070  
            ??_MFRC522_Clear_Bit 002C        MFRC522_ReadCardSerial@str 004E                     ?_record_card 0070  
                MFRC522_Rd@value 0027   __end_of_MFRC522_ReadCardSerial 06F3                 ??_MFRC522_ToCard 0033  
                         ??__ISR 0071         __size_of_MFRC522_Set_Bit 000E         __size_of_MFRC522_Request 0035  
                         ??_main 004F              ??_MFRC522_AntennaOn 002E               __size_of__ISR_UART 0013  
                MFRC522_ToCard@i 003E                  MFRC522_ToCard@n 0040                 ??_MFRC522_isCard 004A  
          MFRC522_ToCard@backLen 0032                  MFRC522_Wr@value 0028        __end_of_MFRC522_Clear_Bit 0771  
          MFRC522_ToCard@_status 003A            MFRC522_ToCard@command 003D                           _EEDATA 009A  
                         _EECON1 009C                           _EECON2 009D                SPI_transfer@i_224 0023  
                         ?_putch 0070            MFRC522_ToCard@sendLen 0030            MFRC522_ToCard@waitIRq 0039  
      __end_of_MFRC522_AntennaOn 079F                   __CFG_PWRTE$OFF 0000               UART_read_byte@data 0020  
           __size_of_eeprom_read 0015                __end_of_UART_init 0740             __end_of_MFRC522_Init 05F7  
        MFRC522_AntiColl@_status 0049                        ??___lwdiv 0075                        ??___lwmod 0076  
                         _buffer 005E             __end_of_eeprom_write 06BD                           _printf 014F  
                record_card@card 0022                           saved_w 007E                    compare_card@i 0023  
        __end_of__initialization 0018                  eeprom_read@addr 0076             __end_of_compare_card 0530  
         MFRC522_Request@TagType 0041                __end_of__ISR_UART 072F                     ??_MFRC522_Rd 0076  
                   ??_MFRC522_Wr 0029            MFRC522_isCard@TagType 004B                     SPI_init@mode 0076  
                 __pcstackCOMMON 0070                  UART_read_byte@i 0021                    __end_of_putch 07AF  
         MFRC522_Request@_status 0047                        ?_SPI_init 0070           MFRC522_Request@reqMode 0046  
       __end_of_MFRC522_AntiColl 04E0                ??_MFRC522_Set_Bit 002C                eeprom_write@value 0075  
             __end_of_MFRC522_Rd 071C               __end_of_MFRC522_Wr 0751                ??_MFRC522_Request 0042  
     __size_of_MFRC522_Clear_Bit 0010                          ??_putch 0075                       __pbssBANK0 005E  
        __size_of_UART_available 0007           MFRC522_ToCard@backData 0031       __size_of_MFRC522_AntennaOn 0009  
                     __pmaintext 0236                       __pintentry 0004          __size_of_UART_read_byte 0033  
                        ?_printf 002C           MFRC522_ToCard@lastBits 003B                       ??_SPI_init 0075  
           __size_of_record_card 004F           MFRC522_ToCard@sendData 002F                       __stringtab 0400  
          __size_of_MFRC522_Init 0038            __size_of_eeprom_write 0028                          ___lwdiv 057F  
                        ___lwmod 05F7            __end_of_MFRC522_Reset 0796                          __ptext1 0530  
                        __ptext2 0695                          __ptext3 014F                          __ptext4 07A7  
                        __ptext5 05F7                          __ptext6 057F                          __ptext7 04E0  
                        __ptext8 06F3                          __ptext9 0662                  __size_of_printf 00E7  
              __end_of_hexpowers 0418                          _dpowers 0406                          main@UID 0053  
                        clrloop0 07A0            __size_of_compare_card 0050                     _MFRC522_Init 05BF  
           end_of_initialization 0018                     _eeprom_write 0695                 record_card@index 0023  
  MFRC522_ReadCardSerial@_status 004D                        _RCSTAbits 0018                          printf@c 003A  
                        printf@f 0039                        _PORTAbits 0005                        _PORTBbits 0006  
                      _UART_init 072F                     _compare_card 04E0                        _TRISAbits 0085  
                      _TRISBbits 0086                   _UART_available 07AF                    ??_eeprom_read 0075  
                      _TXSTAbits 0098                        __ISR_UART 071C                  _MFRC522_Set_Bit 0771  
        MFRC522_Request@backBits 0048              MFRC522_ToCard@irqEn 003C                  _MFRC522_Request 062D  
                 _UART_read_byte 0662                       ?_UART_init 0070                   __end_of_printf 0236  
            start_initialization 0011                __size_of_SPI_init 0020                ?_MFRC522_AntiColl 0070  
              MFRC522_AntiColl@i 004A          __size_of_MFRC522_ToCard 0135               ??_MFRC522_AntiColl 0041  
         __end_of_UART_available 07B6          __size_of_MFRC522_isCard 0010         ??_MFRC522_ReadCardSerial 004C  
                     ?__ISR_UART 0070              __end_of_eeprom_read 0708           __end_of_UART_read_byte 0695  
                       ??_printf 002E                    ?_SPI_transfer 0070                      __pbssCOMMON 0077  
                      ___latbits 0000                    __pcstackBANK0 0020              __end_of__stringdata 0483  
                  SPI_transfer@i 0021                  ?_UART_available 0075                 eeprom_write@addr 0020  
                      __pnvBANK0 006E          __end_of_MFRC522_Set_Bit 077F          __end_of_MFRC522_Request 0662  
               ___lwdiv@dividend 0022              MFRC522_Set_Bit@addr 002D              MFRC522_Set_Bit@mask 002B  
                ?_UART_read_byte 0070                         ?___lwdiv 0020                         ?___lwmod 0027  
                  ??_record_card 0021                        __pstrings 0400                      ??_UART_init 0075  
                 ??_SPI_transfer 0075                        _hexpowers 0410                compare_card@index 0021  
               ___lwdiv@quotient 0025                   __size_of_putch 0008                interrupt_function 0004  
                      clear_ram0 079F                      _eeprom_read 06F3  __size_of_MFRC522_ReadCardSerial 0016  
                    ??__ISR_UART 0070                      __stringbase 0405                      __stringdata 0418  
                      main@i_369 005B                         _SPI_init 06BD                       printf@_val 0035  
                     printf@flag 0033                       printf@prec 0034              __end_of_record_card 057F  
                 _MFRC522_ToCard 001A                   _MFRC522_isCard 0751           __size_of_MFRC522_Reset 0009  
               ?_MFRC522_Set_Bit 002B            MFRC522_Clear_Bit@addr 002E                 ?_MFRC522_Request 0041  
          MFRC522_Clear_Bit@mask 002B                 __size_of___lwdiv 0040                 __size_of___lwmod 0036  
             __end_of__stringtab 0406           __end_of_MFRC522_ToCard 014F           _MFRC522_ReadCardSerial 06DD  
                ___lwdiv@divisor 0020                  ___lwdiv@counter 0024                         __ptext10 072F  
                       __ptext11 07AF                         __ptext20 078D                         __ptext12 06BD  
                       __ptext21 0796                         __ptext13 0751                         __ptext22 0771  
                       __ptext14 062D                         __ptext23 0740                         __ptext15 06DD  
                       __ptext24 0708                         __ptext16 0483                         __ptext25 030C  
                       __ptext17 001A                         __ptext26 077F                         __ptext18 0761  
                       __ptext27 071C                         __ptext19 05BF           __end_of_MFRC522_isCard 0761  
    MFRC522_AntiColl@serNumCheck 0046                    __size_of__ISR 000E                 compare_card@card 0022  
                  __size_of_main 00D6             __end_of_SPI_transfer 0397                       _MFRC522_Rd 0708  
                     _MFRC522_Wr 0740        __size_of_MFRC522_AntiColl 005D                         main@data 0052  
                      printf@idx 0031                      _record_card 0530                    _MFRC522_Reset 078D  
                      putch@data 0075                 ??_UART_available 0077                  ?_MFRC522_ToCard 002F  
                ?_MFRC522_isCard 0070                         intlevel1 0000                 ___lwmod@dividend 0029  
               ??_UART_read_byte 0075                        stringcode 0400                         printf@ap 0032  
                 ?_MFRC522_Reset 0070                  ___lwmod@divisor 0027                  ___lwmod@counter 002B  
                       stringdir 0400                         stringtab 0400                    ?_MFRC522_Init 0070  
                  ?_eeprom_write 0075                     ?_eeprom_read 0070                      ?_MFRC522_Rd 0070  
                    ?_MFRC522_Wr 0028  
