

Microchip Technology PIC18 LITE Macro Assembler V1.33 build 59893 
                                                                                               Fri Feb  6 18:14:21 2015

Microchip Technology Omniscient Code Generator (Lite mode) build 59893
     1                           	processor	18F4520
     2                           	fnconf	rparam,??,?,0
     3                           	opt	pw 120
     4                           	opt	lm
     5                           	psect	text0,global,reloc=2,class=CODE,delta=1
     6                           	psect	cinit,global,reloc=2,class=CODE,delta=1
     7                           	psect	cstackCOMRAM,global,class=COMRAM,space=1,delta=1
     8                           	psect	text1,global,reloc=2,class=CODE,delta=1
     9                           	psect	text2,global,reloc=2,class=CODE,delta=1
    10                           	psect	text3,global,reloc=2,class=CODE,delta=1
    11                           	psect	text4,global,reloc=2,class=CODE,delta=1
    12                           	psect	intsave_regs,global,class=BIGRAM,space=1,delta=1
    13                           	psect	rparam,global,class=COMRAM,space=1,delta=1
    14  0000                     _PORTBbits	set	3969
    15  0000                     _T0CONbits	set	4053
    16  0000                     _TMR0H	set	4055
    17  0000                     _TMR0L	set	4054
    18  0000                     _TRISA	set	3986
    19  0000                     _TRISB	set	3987
    20  0000                     _TMR0IF	set	32658
    21                           
    22                           ; 0 bytes @ 0x5
    23 ;;
    24 ;;Main: autosize = 0, tempsize = 0, incstack = 0, save=0
    25 ;;
    26 ;; *************** function _main *****************
    27 ;; Defined at:
    28 ;;		line 17 in file "main.c"
    29 ;; Parameters:    Size  Location     Type
    30 ;;		None
    31 ;; Auto vars:     Size  Location     Type
    32 ;;		None
    33 ;; Return value:  Size  Location     Type
    34 ;;		None               void
    35 ;; Registers used:
    36 ;;		wreg, status,2, status,0, cstack
    37 ;; Tracked objects:
    38 ;;		On entry : 0/0
    39 ;;		On exit  : 0/0
    40 ;;		Unchanged: 0/0
    41 ;; Data sizes:     COMRAM   BANK0   BANK1   BANK2   BANK3   BANK4   BANK5
    42 ;;      Params:         0       0       0       0       0       0       0
    43 ;;      Locals:         0       0       0       0       0       0       0
    44 ;;      Temps:          0       0       0       0       0       0       0
    45 ;;      Totals:         0       0       0       0       0       0       0
    46 ;;Total ram usage:        0 bytes
    47 ;; Hardware stack levels required when called:    2
    48 ;; This function calls:
    49 ;;		_delay_0
    50 ;; This function is called by:
    51 ;;		Startup code after reset
    52 ;; This function uses a non-reentrant model
    53 ;;
    54                           
    55                           	psect	text0
    56  007FA4                     __ptext0:
    57                           	opt stack 0
    58  007FA4                     _main:
    59                           	opt stack 29
    60                           
    61                           ;main.c: 19: TRISB = 0;
    62                           
    63                           ;incstack = 0
    64  007FA4  0E00               	movlw	0
    65  007FA6  6E93               	movwf	3987,c	;volatile
    66                           
    67                           ;main.c: 20: TRISA = 0;
    68  007FA8  0E00               	movlw	0
    69  007FAA  6E92               	movwf	3986,c	;volatile
    70  007FAC                     l636:
    71                           
    72                           ;main.c: 23: {
    73                           ;main.c: 26: PORTBbits.RB1 = 1 ;
    74  007FAC  8281               	bsf	3969,1,c	;volatile
    75                           
    76                           ;main.c: 27: delay_0(500);
    77  007FAE  0E01               	movlw	1
    78  007FB0  6E02               	movwf	delay_0@_val+1,c
    79  007FB2  0EF4               	movlw	244
    80  007FB4  6E01               	movwf	delay_0@_val,c
    81  007FB6  ECE5  F03F         	call	_delay_0	;wreg free
    82                           
    83                           ;main.c: 29: PORTBbits.RB1 = 0;
    84  007FBA  9281               	bcf	3969,1,c	;volatile
    85                           
    86                           ;main.c: 30: delay_0(500);
    87  007FBC  0E01               	movlw	1
    88  007FBE  6E02               	movwf	delay_0@_val+1,c
    89  007FC0  0EF4               	movlw	244
    90  007FC2  6E01               	movwf	delay_0@_val,c
    91  007FC4  ECE5  F03F         	call	_delay_0	;wreg free
    92  007FC8  D7F1               	goto	l636
    93  007FCA                     __end_of_main:
    94                           	opt stack 0
    95                           
    96                           	psect	cinit
    97  007F86                     __pcinit:
    98                           	opt stack 0
    99  007F86                     start_initialization:
   100                           	opt stack 0
   101  007F86                     __initialization:
   102                           	opt stack 0
   103  007F86                     end_of_initialization:
   104                           	opt stack 0
   105  007F86                     __end_of__initialization:
   106                           	opt stack 0
   107  007F86  0100               	movlb	0
   108  007F88  EFD2  F03F         	goto	_main	;jump to C main() function
   109                           
   110                           	psect	cstackCOMRAM
   111  000001                     __pcstackCOMRAM:
   112                           	opt stack 0
   113  000001                     delay_0@_val:
   114                           	opt stack 0
   115                           
   116                           ; 2 bytes @ 0x0
   117  000001                     	ds	2
   118  000003                     ??_delay_0:
   119                           
   120                           ; 0 bytes @ 0x2
   121  000003                     	ds	1
   122  000004                     delay_0@count:
   123                           	opt stack 0
   124                           
   125                           ; 2 bytes @ 0x3
   126  000004                     	ds	2
   127  000006                     
   128 ;; *************** function _delay_0 *****************
   129 ;; Defined at:
   130 ;;		line 62 in file "main.c"
   131 ;; Parameters:    Size  Location     Type
   132 ;;  _val            2    0[COMRAM] int 
   133 ;; Auto vars:     Size  Location     Type
   134 ;;  count           2    3[COMRAM] int 
   135 ;; Return value:  Size  Location     Type
   136 ;;		None               void
   137 ;; Registers used:
   138 ;;		wreg, status,2, status,0, cstack
   139 ;; Tracked objects:
   140 ;;		On entry : 0/0
   141 ;;		On exit  : 0/0
   142 ;;		Unchanged: 0/0
   143 ;; Data sizes:     COMRAM   BANK0   BANK1   BANK2   BANK3   BANK4   BANK5
   144 ;;      Params:         2       0       0       0       0       0       0
   145 ;;      Locals:         2       0       0       0       0       0       0
   146 ;;      Temps:          1       0       0       0       0       0       0
   147 ;;      Totals:         5       0       0       0       0       0       0
   148 ;;Total ram usage:        5 bytes
   149 ;; Hardware stack levels used:    1
   150 ;; Hardware stack levels required when called:    1
   151 ;; This function calls:
   152 ;;		_config_timer
   153 ;;		_set_timer0
   154 ;;		_timer0_on
   155 ;; This function is called by:
   156 ;;		_main
   157 ;; This function uses a non-reentrant model
   158 ;;
   159                           
   160                           	psect	text1
   161  007FCA                     __ptext1:
   162                           	opt stack 0
   163  007FCA                     _delay_0:
   164                           	opt stack 29
   165                           
   166                           ;main.c: 64: int count=0;
   167                           
   168                           ;incstack = 0
   169  007FCA  0E00               	movlw	0
   170  007FCC  6E05               	movwf	delay_0@count+1,c
   171  007FCE  0E00               	movlw	0
   172  007FD0  6E04               	movwf	delay_0@count,c
   173                           
   174                           ;main.c: 65: config_timer();
   175  007FD2  ECCB  F03F         	call	_config_timer	;wreg free
   176                           
   177                           ;main.c: 66: while(count<_val)
   178  007FD6  D009               	goto	l632
   179  007FD8                     l626:
   180                           
   181                           ;main.c: 67: {
   182                           ;main.c: 68: set_timer0();
   183  007FD8  ECC6  F03F         	call	_set_timer0	;wreg free
   184                           
   185                           ;main.c: 69: timer0_on();
   186  007FDC  ECC1  F03F         	call	_timer0_on	;wreg free
   187  007FE0                     l36:
   188  007FE0  A4F2               	btfss	intcon,2,c	;volatile
   189  007FE2  D7FE               	goto	l36
   190                           
   191                           ;main.c: 74: TMR0IF = 0;
   192  007FE4  94F2               	bcf	intcon,2,c	;volatile
   193                           
   194                           ;main.c: 75: count++;
   195  007FE6  4A04               	infsnz	delay_0@count,f,c
   196  007FE8  2A05               	incf	delay_0@count+1,f,c
   197  007FEA                     l632:
   198  007FEA  5005               	movf	delay_0@count+1,w,c
   199  007FEC  0A80               	xorlw	128
   200  007FEE  6E03               	movwf	??_delay_0& (0+255),c
   201  007FF0  5001               	movf	delay_0@_val,w,c
   202  007FF2  5C04               	subwf	delay_0@count,w,c
   203  007FF4  5002               	movf	delay_0@_val+1,w,c
   204  007FF6  0A80               	xorlw	128
   205  007FF8  5803               	subwfb	??_delay_0& (0+255),w,c
   206  007FFA  B0D8               	btfsc	status,0,c
   207  007FFC  0012               	return	
   208  007FFE  D7EC               	goto	l626
   209  008000                     __end_of_delay_0:
   210                           	opt stack 0
   211                           intcon	equ	0xFF2
   212                           status	equ	0xFD8
   213                           
   214 ;; *************** function _timer0_on *****************
   215 ;; Defined at:
   216 ;;		line 55 in file "main.c"
   217 ;; Parameters:    Size  Location     Type
   218 ;;		None
   219 ;; Auto vars:     Size  Location     Type
   220 ;;		None
   221 ;; Return value:  Size  Location     Type
   222 ;;		None               void
   223 ;; Registers used:
   224 ;;		None
   225 ;; Tracked objects:
   226 ;;		On entry : 0/0
   227 ;;		On exit  : 0/0
   228 ;;		Unchanged: 0/0
   229 ;; Data sizes:     COMRAM   BANK0   BANK1   BANK2   BANK3   BANK4   BANK5
   230 ;;      Params:         0       0       0       0       0       0       0
   231 ;;      Locals:         0       0       0       0       0       0       0
   232 ;;      Temps:          0       0       0       0       0       0       0
   233 ;;      Totals:         0       0       0       0       0       0       0
   234 ;;Total ram usage:        0 bytes
   235 ;; Hardware stack levels used:    1
   236 ;; This function calls:
   237 ;;		Nothing
   238 ;; This function is called by:
   239 ;;		_delay_0
   240 ;; This function uses a non-reentrant model
   241 ;;
   242                           
   243                           	psect	text2
   244  007F82                     __ptext2:
   245                           	opt stack 0
   246  007F82                     _timer0_on:
   247                           	opt stack 29
   248                           
   249                           ;main.c: 57: T0CONbits.TMR0ON=1;
   250                           
   251                           ;incstack = 0
   252  007F82  8ED5               	bsf	4053,7,c	;volatile
   253  007F84  0012               	return	
   254  007F86                     __end_of_timer0_on:
   255                           	opt stack 0
   256                           intcon	equ	0xFF2
   257                           status	equ	0xFD8
   258                           
   259 ;; *************** function _set_timer0 *****************
   260 ;; Defined at:
   261 ;;		line 45 in file "main.c"
   262 ;; Parameters:    Size  Location     Type
   263 ;;		None
   264 ;; Auto vars:     Size  Location     Type
   265 ;;		None
   266 ;; Return value:  Size  Location     Type
   267 ;;		None               void
   268 ;; Registers used:
   269 ;;		wreg, status,2
   270 ;; Tracked objects:
   271 ;;		On entry : 0/0
   272 ;;		On exit  : 0/0
   273 ;;		Unchanged: 0/0
   274 ;; Data sizes:     COMRAM   BANK0   BANK1   BANK2   BANK3   BANK4   BANK5
   275 ;;      Params:         0       0       0       0       0       0       0
   276 ;;      Locals:         0       0       0       0       0       0       0
   277 ;;      Temps:          0       0       0       0       0       0       0
   278 ;;      Totals:         0       0       0       0       0       0       0
   279 ;;Total ram usage:        0 bytes
   280 ;; Hardware stack levels used:    1
   281 ;; This function calls:
   282 ;;		Nothing
   283 ;; This function is called by:
   284 ;;		_delay_0
   285 ;; This function uses a non-reentrant model
   286 ;;
   287                           
   288                           	psect	text3
   289  007F8C                     __ptext3:
   290                           	opt stack 0
   291  007F8C                     _set_timer0:
   292                           	opt stack 29
   293                           
   294                           ;main.c: 51: TMR0H = 0xfc;
   295                           
   296                           ;incstack = 0
   297  007F8C  0EFC               	movlw	252
   298  007F8E  6ED7               	movwf	4055,c	;volatile
   299                           
   300                           ;main.c: 52: TMR0L = 0x17;
   301  007F90  0E17               	movlw	23
   302  007F92  6ED6               	movwf	4054,c	;volatile
   303  007F94  0012               	return	
   304  007F96                     __end_of_set_timer0:
   305                           	opt stack 0
   306                           intcon	equ	0xFF2
   307                           status	equ	0xFD8
   308                           
   309 ;; *************** function _config_timer *****************
   310 ;; Defined at:
   311 ;;		line 36 in file "main.c"
   312 ;; Parameters:    Size  Location     Type
   313 ;;		None
   314 ;; Auto vars:     Size  Location     Type
   315 ;;		None
   316 ;; Return value:  Size  Location     Type
   317 ;;		None               void
   318 ;; Registers used:
   319 ;;		None
   320 ;; Tracked objects:
   321 ;;		On entry : 0/0
   322 ;;		On exit  : 0/0
   323 ;;		Unchanged: 0/0
   324 ;; Data sizes:     COMRAM   BANK0   BANK1   BANK2   BANK3   BANK4   BANK5
   325 ;;      Params:         0       0       0       0       0       0       0
   326 ;;      Locals:         0       0       0       0       0       0       0
   327 ;;      Temps:          0       0       0       0       0       0       0
   328 ;;      Totals:         0       0       0       0       0       0       0
   329 ;;Total ram usage:        0 bytes
   330 ;; Hardware stack levels used:    1
   331 ;; This function calls:
   332 ;;		Nothing
   333 ;; This function is called by:
   334 ;;		_delay_0
   335 ;; This function uses a non-reentrant model
   336 ;;
   337                           
   338                           	psect	text4
   339  007F96                     __ptext4:
   340                           	opt stack 0
   341  007F96                     _config_timer:
   342                           	opt stack 29
   343                           
   344                           ;main.c: 39: T0CONbits.T08BIT = 0;
   345                           
   346                           ;incstack = 0
   347  007F96  9CD5               	bcf	4053,6,c	;volatile
   348                           
   349                           ;main.c: 40: T0CONbits.T0CS = 0;
   350  007F98  9AD5               	bcf	4053,5,c	;volatile
   351                           
   352                           ;main.c: 41: T0CONbits.PSA = 1;
   353  007F9A  86D5               	bsf	4053,3,c	;volatile
   354                           
   355                           ;main.c: 42: T0CONbits.T0PS = 0;
   356  007F9C  90D5               	bcf	4053,0,c	;volatile
   357  007F9E  92D5               	bcf	4053,1,c	;volatile
   358  007FA0  94D5               	bcf	4053,2,c	;volatile
   359  007FA2  0012               	return	
   360  007FA4                     __end_of_config_timer:
   361                           	opt stack 0
   362  0000                     intcon	equ	0xFF2
   363                           status	equ	0xFD8
   364                           intcon	equ	0xFF2
   365                           status	equ	0xFD8
   366                           
   367                           	psect	rparam
   368  0000                     intcon	equ	0xFF2
   369                           status	equ	0xFD8


Data Sizes:
    Strings     0
    Constant    0
    Data        0
    BSS         0
    Persistent  0
    Stack       0

Auto Spaces:
    Space          Size  Autos    Used
    COMRAM          127      5       5
    BANK0           128      0       0
    BANK1           256      0       0
    BANK2           256      0       0
    BANK3           256      0       0
    BANK4           256      0       0
    BANK5           256      0       0

Pointer List with Targets:

    None.

Critical Paths under _main in COMRAM

    _main->_delay_0

Critical Paths under _main in BANK0

    None.

Critical Paths under _main in BANK1

    None.

Critical Paths under _main in BANK2

    None.

Critical Paths under _main in BANK3

    None.

Critical Paths under _main in BANK4

    None.

Critical Paths under _main in BANK5

    None.

Call Graph Tables:

 ---------------------------------------------------------------------------------
 (Depth) Function   	        Calls       Base Space   Used Autos Params    Refs
 ---------------------------------------------------------------------------------
 (0) _main                                                 0     0      0      98
                            _delay_0
 ---------------------------------------------------------------------------------
 (1) _delay_0                                              5     3      2      98
                                              0 COMRAM     5     3      2
                       _config_timer
                         _set_timer0
                          _timer0_on
 ---------------------------------------------------------------------------------
 (2) _timer0_on                                            0     0      0       0
 ---------------------------------------------------------------------------------
 (2) _set_timer0                                           0     0      0       0
 ---------------------------------------------------------------------------------
 (2) _config_timer                                         0     0      0       0
 ---------------------------------------------------------------------------------
 Estimated maximum stack depth 2
 ---------------------------------------------------------------------------------

 Call Graph Graphs:

 _main (ROOT)
   _delay_0
     _config_timer
     _set_timer0
     _timer0_on

 Address spaces:
Name               Size   Autos  Total    Cost      Usage
BITCOMRAM           7F      0       0       0        0.0%
EEDATA             100      0       0       0        0.0%
NULL                 0      0       0       0        0.0%
CODE                 0      0       0       0        0.0%
COMRAM              7F      5       5       1        3.9%
STACK                0      0       0       2        0.0%
DATA                 0      0       0       3        0.0%
BITBANK0            80      0       0       4        0.0%
BANK0               80      0       0       5        0.0%
BITBANK1           100      0       0       6        0.0%
BANK1              100      0       0       7        0.0%
BITBANK2           100      0       0       8        0.0%
BANK2              100      0       0       9        0.0%
BITBANK3           100      0       0      10        0.0%
BANK3              100      0       0      11        0.0%
BITBANK4           100      0       0      12        0.0%
BANK4              100      0       0      13        0.0%
BANK5              100      0       0      14        0.0%
ABS                  0      0       0      15        0.0%
BITBANK5           100      0       0      16        0.0%
BIGRAM             5FF      0       0      17        0.0%
BITSFR               0      0       0      40        0.0%
SFR                  0      0       0      40        0.0%


Microchip Technology PIC18 Macro Assembler V1.33 build 59893 
Symbol Table                                                                                   Fri Feb  6 18:14:21 2015

                     l36 7FE0                      l632 7FEA                      l626 7FD8  
                    l636 7FAC                     _main 7FA4                     start 0000  
         ??_config_timer 0001                    ?_main 0001                    _TMR0H 000FD7  
                  _TMR0L 000FD6                    _TRISA 000F92                    _TRISB 000F93  
        __end_of_delay_0 8000                    status 000FD8          __initialization 7F86  
           __end_of_main 7FCA                   ??_main 0006            __activetblptr 000000  
                 _TMR0IF 007F92                ??_delay_0 0003     __end_of_config_timer 7FA4  
             __accesstop 0080  __end_of__initialization 7F86           __pcstackCOMRAM 0001  
     __size_of_timer0_on 0004                  __Hparam 0000                  __Lparam 0000  
                __pcinit 7F86                  _delay_0 7FCA    __size_of_config_timer 000E  
                __ramtop 0600                  __ptext0 7FA4                  __ptext1 7FCA  
                __ptext2 7F82                  __ptext3 7F8C                  __ptext4 7F96  
              _T0CONbits 000FD5     end_of_initialization 7F86        __end_of_timer0_on 7F86  
           _config_timer 7F96               _set_timer0 7F8C                _PORTBbits 000F81  
    start_initialization 7F86              ?_set_timer0 0001                 ?_delay_0 0001  
           delay_0@count 0004      __size_of_set_timer0 000A                _timer0_on 7F82  
               __Hrparam 0000                 __Lrparam 0000               ?_timer0_on 0001  
       __size_of_delay_0 0036              delay_0@_val 0001            __size_of_main 0026  
           ??_set_timer0 0001       __end_of_set_timer0 7F96              ??_timer0_on 0001  
          ?_config_timer 0001  
